0000:	DB 01   		IN      A,(01H)			;Read SYSTEM port ($01) - for a normal system A will be loaded with $BE
0002:	E6 C0   		AND     0C0H			;Bitwise AND on A - A should become $00
0004:	FE 80   		CP      80H				;I can only guess that this is to verify that the physical mask on bit 6 of port $01 is working correctly
0006:	28 01   		JR      Z,0009H			;If the physical (as in, the copper trace on the PCB) mask is working, proceed with game code - otherwise...
0008:	76      		HALT    				;Crash and burn
0009:	06 00   		LD      B,00H
000b:	31 FF 7F		LD      SP,7FFFH		;Initialize the stack
000e:	CD AC 11		CALL    11ACH			;GOSUB: DELAY_LOOP (I think it's a delay loop, at least)
0011:	ED 56   		IM      1				;Set INTERRUPT_MODE $01
0013:	97      		SUB     A
0014:	D3 01   		OUT     (01H),A
0016:	47      		LD      B,A
0017:	0E 88   		LD      C,88H
0019:	6F      		LD      L,A
001a:	26 78   		LD      H,78H
001c:	77      		LD      (HL),A
001d:	23      		INC     HL
001e:	10 FC   		DJNZ    001CH
0020:	D3 00   		OUT     (00H),A
0022:	0D      		DEC     C
0023:	20 F7   		JR      NZ,001CH
0025:	3C      		INC     A
0026:	32 4B 7C		LD      (7C4BH),A
0029:	21 59 7D		LD      HL,7D59H
002c:	77      		LD      (HL),A
002d:	23      		INC     HL
002e:	77      		LD      (HL),A
002f:	23      		INC     HL
0030:	77      		LD      (HL),A
0031:	3E FF   		LD      A,0FFH
0033:	C3 42 01		JP      0142H
0036:	28 4E   		JR      Z,0086H

;SUBROUTINE: INTERRUPT_MODE_01_HANDLER - This is the handler subroutine for IM1 (always located at 0x0038 for a Z80)

0038:	F5      		PUSH    AF				;Handler always starts with a save sequence
0039:	C5      		PUSH    BC
003a:	D5      		PUSH    DE
003b:	E5      		PUSH    HL
003c:	DB 00   		IN      A,(00H)			;Read port $00 into A - the EPOS driver in MAME seems to indicate that this is the dipswitch/watchdog interface
003e:	CB 7F   		BIT     7,A				;Test bit 7 of A; set zero flag if true - If these are the DIP settings, this would be the switch for demo sounds
0040:	28 0A   		JR      Z,004CH			;If demo sounds are enabled, jump to 0x004C, otherwise...
0042:	3A 8C 7C		LD      A,(7C8CH)		;Store A (port $00 - DIP settings) into RAM
0045:	FE 00   		CP      00H				
0047:	28 03   		JR      Z,004CH
0049:	97      		SUB     A
004a:	18 02   		JR      004EH
004c:	3E 01   		LD      A,01H			;Load $01 into A
004e:	32 5B 7D		LD      (7D5BH),A		;
0051:	21 59 7D		LD      HL,7D59H
0054:	97      		SUB     A
0055:	BE      		CP      (HL)
0056:	C4 98 00		CALL    NZ,0098H
0059:	23      		INC     HL
005a:	BE      		CP      (HL)
005b:	C4 7C 00		CALL    NZ,007CH
005e:	23      		INC     HL
005f:	BE      		CP      (HL)
0060:	C4 6A 09		CALL    NZ,096AH
0063:	CC 3B 09		CALL    Z,093BH
0066:	23      		INC     HL
0067:	35      		DEC     (HL)
0068:	23      		INC     HL
0069:	35      		DEC     (HL)
006a:	23      		INC     HL
006b:	36 00   		LD      (HL),00H
006d:	E1      		POP     HL
006e:	D1      		POP     DE
006f:	C1      		POP     BC
0070:	F1      		POP     AF
0071:	FB      		EI      
0072:	C9      		RET     

;SUBROUTINE: READ_PLAYER_INPUT - Whole sub not used, CALLs usually start at 0x007C. This reads player input (not P1/P2 start buttons, though)

0073:	FF      		RST     38H
0074:	FF      		RST     38H
0075:	0B      		DEC     BC
0076:	7C      		LD      A,H
0077:	70      		LD      (HL),B
0078:	EA 05 F9		JP      PE,0F905H
007b:	45      		LD      B,L
007c:	F5      		PUSH    AF				;This is where most CALLs land
007d:	C5      		PUSH    BC
007e:	06 FF   		LD      B,0FFH
0080:	3A 62 7D		LD      A,(7D62H)
0083:	CB 57   		BIT     2,A
0085:	20 02   		JR      NZ,0089H
0087:	06 FB   		LD      B,0FBH
0089:	CB 5F   		BIT     3,A
008b:	20 02   		JR      NZ,008FH
008d:	06 F7   		LD      B,0F7H
008f:	DB 02   		IN      A,(02H)
0091:	A0      		AND     B
0092:	32 62 7D		LD      (7D62H),A
0095:	C1      		POP     BC
0096:	F1      		POP     AF
0097:	C9      		RET     

0098:	F5      		PUSH    AF
0099:	E5      		PUSH    HL
009a:	DB 01   		IN      A,(01H)
009c:	E6 C0   		AND     0C0H
009e:	FE 80   		CP      80H
00a0:	28 03   		JR      Z,00A5H
00a2:	C3 08 00		JP      0008H
00a5:	DB 01   		IN      A,(01H)
00a7:	2F      		CPL     
00a8:	47      		LD      B,A
00a9:	CB 47   		BIT		0,A
00ab:	CC C2 00		CALL    Z,00C2H
00ae:	21 5C 7D		LD      HL,7D5CH
00b1:	97      		SUB     A
00b2:	BE      		CP      (HL)
00b3:	20 05   		JR      NZ,00BAH
00b5:	CD 19 01		CALL    0119H
00b8:	36 1E   		LD      (HL),1EH
00ba:	CB 60   		BIT     4,B
00bc:	C2 88 01		JP      NZ,0188H
00bf:	E1      		POP     HL
00c0:	F1      		POP     AF
00c1:	C9      		RET     

00c2:	F5      		PUSH    AF
00c3:	C5      		PUSH    BC
00c4:	21 5B 7D		LD      HL,7D5BH
00c7:	36 01   		LD      (HL),01H
00c9:	3A 60 7D		LD      A,(7D60H)
00cc:	FE 00   		CP      00H
00ce:	28 46   		JR      Z,0116H
00d0:	97      		SUB     A
00d1:	32 60 7D		LD      (7D60H),A
00d4:	3A 8C 7C		LD      A,(7C8CH)
00d7:	FE 01   		CP      01H
00d9:	28 07   		JR      Z,00E2H
00db:	3A 78 7D		LD      A,(7D78H)
00de:	FE 01   		CP      01H
00e0:	28 10   		JR      Z,00F2H
00e2:	CD 3B 09		CALL    093BH
00e5:	3E 01   		LD      A,01H
00e7:	32 B5 7C		LD      (7CB5H),A
00ea:	3E 04   		LD      A,04H
00ec:	32 61 7D		LD      (7D61H),A
00ef:	CD 53 0B		CALL    0B53H
00f2:	3E 0F   		LD      A,0FH
00f4:	32 5C 7D		LD      (7D5CH),A
00f7:	DB 00   		IN      A,(00H)
00f9:	E6 01   		AND     01H
00fb:	21 65 7D		LD      HL,7D65H
00fe:	FE 00   		CP      00H
0100:	28 05   		JR      Z,0107H
0102:	7E      		LD      A,(HL)
0103:	C6 01   		ADD     A,01H
0105:	27      		DAA     
0106:	77      		LD      (HL),A
0107:	7E      		LD      A,(HL)
0108:	C6 01   		ADD     A,01H
010a:	27      		DAA     
010b:	77      		LD      (HL),A
010c:	3A 5F 7D		LD      A,(7D5FH)
010f:	CB D7   		SET     2,A
0111:	32 5F 7D		LD      (7D5FH),A
0114:	D3 01   		OUT     (01H),A
0116:	C1      		POP     BC
0117:	F1      		POP     AF
0118:	C9      		RET     

0119:	F5      		PUSH    AF
011a:	C5      		PUSH    BC
011b:	E5      		PUSH    HL
011c:	3E 01   		LD      A,01H
011e:	32 60 7D		LD      (7D60H),A
0121:	D3 03   		OUT     (03H),A
0123:	21 5F 7D		LD      HL,7D5FH
0126:	0E F8   		LD      C,0F8H
0128:	3A 65 7D		LD      A,(7D65H)
012b:	FE 00   		CP      00H
012d:	28 08   		JR      Z,0137H
012f:	0E F9   		LD      C,0F9H
0131:	FE 01   		CP      01H
0133:	28 02   		JR      Z,0137H
0135:	0E FB   		LD      C,0FBH
0137:	7E      		LD      A,(HL)
0138:	EE 03   		XOR     03H
013a:	77      		LD      (HL),A
013b:	A1      		AND     C
013c:	D3 01   		OUT     (01H),A
013e:	E1      		POP     HL
013f:	C1      		POP     BC
0140:	F1      		POP     AF
0141:	C9      		RET     

0142:	32 62 7D		LD      (7D62H),A
0145:	CD 3B 09		CALL    093BH
0148:	21 F9 7B		LD      HL,7BF9H
014b:	36 00   		LD      (HL),00H
014d:	23      		INC     HL
014e:	36 01   		LD      (HL),01H
0150:	23      		INC     HL
0151:	36 00   		LD      (HL),00H
0153:	23      		INC     HL
0154:	36 0D   		LD      (HL),0DH
0156:	23      		INC     HL
0157:	36 0F   		LD      (HL),0FH
0159:	23      		INC     HL
015a:	36 02   		LD      (HL),02H
015c:	CD D2 05		CALL    05D2H
015f:	0E 04   		LD      C,04H
0161:	CD 78 01		CALL    0178H
0164:	CD 00 05		CALL    0500H
0167:	0E 02   		LD      C,02H
0169:	CD 78 01		CALL    0178H
016c:	CD EF 03		CALL    03EFH
016f:	0E 03   		LD      C,03H
0171:	CD 78 01		CALL    0178H
0174:	FB      		EI      
0175:	C3 53 21		JP      2153H
0178:	06 00   		LD      B,00H
017a:	CD AC 11		CALL    11ACH
017d:	3A 7C 7C		LD      A,(7C7CH)
0180:	FE 00   		CP      00H
0182:	C8      		RET     Z

0183:	41      		LD      B,C
0184:	F1      		POP     AF
0185:	C3 3F 02		JP      023FH
0188:	F3      		DI      
0189:	CD 3B 09		CALL    093BH
018c:	06 00   		LD      B,00H
018e:	97      		SUB     A
018f:	32 5F 7D		LD      (7D5FH),A
0192:	CD 45 12		CALL    1245H
0195:	CD D2 1A		CALL    1AD2H
0198:	FD 21 C9		LD      IY,06C9H
019c:	DD 21 DC		LD      IX,0A1DCH
01a0:	CD 98 12		CALL    1298H
01a3:	FD 21 5D		LD      IY,025DH
01a7:	DD 21 AA		LD      IX,85AAH
01ab:	CD 93 12		CALL    1293H
01ae:	FD 21 AE		LD      IY,02AEH
01b2:	DD 21 36		LD      IX,9036H
01b6:	CD 93 12		CALL    1293H
01b9:	FD 21 C7		LD      IY,02C7H
01bd:	DD 21 D6		LD      IX,9AD6H
01c1:	CD 93 12		CALL    1293H
01c4:	0E 00   		LD      C,00H
01c6:	DD 21 7E		LD      IX,8C7EH
01ca:	C3 E7 01		JP      01E7H
01cd:	D3 00   		OUT     (00H),A
01cf:	DB 02   		IN      A,(02H)
01d1:	2F      		CPL     
01d2:	4F      		LD      C,A
01d3:	FE 00   		CP      00H
01d5:	28 F6   		JR      Z,01CDH
01d7:	CB 6F   		BIT     5,A
01d9:	28 03   		JR      Z,01DEH
01db:	04      		INC     B
01dc:	18 05   		JR      01E3H
01de:	CB 67   		BIT     4,A
01e0:	28 31   		JR      Z,0213H
01e2:	05      		DEC     B
01e3:	3E 07   		LD      A,07H
01e5:	A0      		AND     B
01e6:	47      		LD      B,A
01e7:	97      		SUB     A
01e8:	32 F2 7B		LD      (7BF2H),A
01eb:	FD 21 24		LD      IY,0324H
01ef:	CD 93 12		CALL    1293H
01f2:	11 FC FF		LD      DE,0FFFCH
01f5:	78      		LD      A,B
01f6:	DD 21 82		LD      IX,8C82H
01fa:	3C      		INC     A
01fb:	DD 19   		ADD     IX,DE
01fd:	3D      		DEC     A
01fe:	20 FB   		JR      NZ,01FBH
0200:	3E 0E   		LD      A,0EH
0202:	32 F2 7B		LD      (7BF2H),A
0205:	FD 21 24		LD      IY,0324H
0209:	CD 93 12		CALL    1293H
020c:	C5      		PUSH    BC
020d:	06 70   		LD      B,70H
020f:	CD AC 11		CALL    11ACH
0212:	C1      		POP     BC
0213:	CB 51   		BIT     2,C
0215:	28 B6   		JR      Z,01CDH
0217:	78      		LD      A,B
0218:	FE 00   		CP      00H
021a:	CA 0A 07		JP      Z,070AH
021d:	FE 01   		CP      01H
021f:	CC 40 03		CALL    Z,0340H
0222:	FE 02   		CP      02H
0224:	CC 00 05		CALL    Z,0500H
0227:	FE 03   		CP      03H
0229:	CC EF 03		CALL    Z,03EFH
022c:	FE 04   		CP      04H
022e:	CC D2 05		CALL    Z,05D2H
0231:	FE 05   		CP      05H
0233:	CC B3 03		CALL    Z,03B3H
0236:	FE 06   		CP      06H
0238:	CA 64 05		JP      Z,0564H
023b:	FE 07   		CP      07H
023d:	28 FE   		JR      Z,023DH
023f:	CD 45 02		CALL    0245H
0242:	C3 8E 01		JP      018EH
0245:	F5      		PUSH    AF
0246:	C5      		PUSH    BC
0247:	DD 21 31		LD      IX,0C531H
024b:	FD 21 26		LD      IY,0326H
024f:	CD 93 12		CALL    1293H
0252:	DB 02   		IN      A,(02H)
0254:	D3 00   		OUT     (00H),A
0256:	CB 57   		BIT     2,A
0258:	20 F8   		JR      NZ,0252H
025a:	C1      		POP     BC
025b:	F1      		POP     AF
025c:	C9      		RET     

025d:	50      		LD      D,B
025e:	FF      		RST     38H
025f:	04      		INC     B
0260:	3C      		INC     A
0261:	46      		LD      B,(HL)
0262:	69      		LD      L,C
0263:	14      		INC     D
0264:	82      		ADD     A,D
0265:	FF      		RST     38H
0266:	08      		EX      AF,AF'
0267:	2D      		DEC     L
0268:	46      		LD      B,(HL)
0269:	78      		LD      A,B
026a:	5A      		LD      E,D
026b:	5F      		LD      E,A
026c:	28 0A   		JR      Z,0278H
026e:	32 82 FF		LD      (0FF82H),A
0271:	04      		INC     B
0272:	5F      		LD      E,A
0273:	46      		LD      B,(HL)
0274:	82      		ADD     A,D
0275:	5A      		LD      E,D
0276:	14      		INC     D
0277:	37      		SCF     
0278:	14      		INC     D
0279:	0A      		LD      A,(BC)
027a:	5F      		LD      E,A
027b:	82      		ADD     A,D
027c:	5F      		LD      E,A
027d:	14      		INC     D
027e:	5A      		LD      E,D
027f:	5F      		LD      E,A
0280:	82      		ADD     A,D
0281:	FF      		RST     38H
0282:	80      		ADD     A,B
0283:	FF      		RST     38H
0284:	80      		ADD     A,B
0285:	4B      		LD      C,E
0286:	55      		LD      D,L
0287:	14      		INC     D
0288:	5A      		LD      E,D
0289:	5A      		LD      E,D
028a:	82      		ADD     A,D
028b:	FF      		RST     38H
028c:	08      		EX      AF,AF'
028d:	14      		INC     D
028e:	41      		LD      B,C
028f:	14      		INC     D
0290:	55      		LD      D,L
0291:	1E 78   		LD      E,78H
0293:	82      		ADD     A,D
0294:	FF      		RST     38H
0295:	04      		INC     B
0296:	5F      		LD      E,A
0297:	46      		LD      B,(HL)
0298:	82      		ADD     A,D
0299:	14      		INC     D
029a:	41      		LD      B,C
029b:	5F      		LD      E,A
029c:	14      		INC     D
029d:	55      		LD      D,L
029e:	82      		ADD     A,D
029f:	00      		NOP     
02a0:	41      		LD      B,C
02a1:	0F      		RRCA    
02a2:	82      		ADD     A,D
02a3:	FF      		RST     38H
02a4:	80      		ADD     A,B
02a5:	14      		INC     D
02a6:	73      		LD      (HL),E
02a7:	28 5F   		JR      Z,0308H
02a9:	82      		ADD     A,D
02aa:	5F      		LD      E,A
02ab:	14      		INC     D
02ac:	5A      		LD      E,D
02ad:	5F      		LD      E,A
02ae:	18 8C   		JR      023CH
02b0:	FF      		RST     38H
02b1:	80      		ADD     A,B
02b2:	91      		SUB     C
02b3:	FF      		RST     38H
02b4:	80      		ADD     A,B
02b5:	96      		SUB     (HL)
02b6:	FF      		RST     38H
02b7:	80      		ADD     A,B
02b8:	9B      		SBC     A,E
02b9:	FF      		RST     38H
02ba:	80      		ADD     A,B
02bb:	A0      		AND     B
02bc:	FF      		RST     38H
02bd:	80      		ADD     A,B
02be:	A5      		AND     L
02bf:	FF      		RST     38H
02c0:	80      		ADD     A,B
02c1:	AA      		XOR     D
02c2:	FF      		RST     38H
02c3:	80      		ADD     A,B
02c4:	AF      		XOR     A
02c5:	FF      		RST     38H
02c6:	80      		ADD     A,B
02c7:	5C      		LD      E,H
02c8:	0A      		LD      A,(BC)
02c9:	64      		LD      H,H
02ca:	55      		LD      D,L
02cb:	55      		LD      D,L
02cc:	14      		INC     D
02cd:	41      		LD      B,C
02ce:	5F      		LD      E,A
02cf:	82      		ADD     A,D
02d0:	5A      		LD      E,D
02d1:	14      		INC     D
02d2:	5F      		LD      E,A
02d3:	5F      		LD      E,A
02d4:	28 41   		JR      Z,0317H
02d6:	1E 5A   		LD      E,5AH
02d8:	FF      		RST     38H
02d9:	80      		ADD     A,B
02da:	0A      		LD      A,(BC)
02db:	46      		LD      B,(HL)
02dc:	37      		SCF     
02dd:	46      		LD      B,(HL)
02de:	55      		LD      D,L
02df:	82      		ADD     A,D
02e0:	5F      		LD      E,A
02e1:	00      		NOP     
02e2:	05      		DEC     B
02e3:	37      		SCF     
02e4:	14      		INC     D
02e5:	82      		ADD     A,D
02e6:	FF      		RST     38H
02e7:	80      		ADD     A,B
02e8:	5A      		LD      E,D
02e9:	0A      		LD      A,(BC)
02ea:	55      		LD      D,L
02eb:	00      		NOP     
02ec:	5F      		LD      E,A
02ed:	0A      		LD      A,(BC)
02ee:	23      		INC     HL
02ef:	4B      		LD      C,E
02f0:	00      		NOP     
02f1:	0F      		RRCA    
02f2:	82      		ADD     A,D
02f3:	55      		LD      D,L
02f4:	00      		NOP     
02f5:	3C      		INC     A
02f6:	FF      		RST     38H
02f7:	80      		ADD     A,B
02f8:	69      		LD      L,C
02f9:	28 0F   		JR      Z,030AH
02fb:	14      		INC     D
02fc:	46      		LD      B,(HL)
02fd:	82      		ADD     A,D
02fe:	55      		LD      D,L
02ff:	00      		NOP     
0300:	3C      		INC     A
0301:	FF      		RST     38H
0302:	80      		ADD     A,B
0303:	55      		LD      D,L
0304:	46      		LD      B,(HL)
0305:	3C      		INC     A
0306:	FF      		RST     38H
0307:	80      		ADD     A,B
0308:	0A      		LD      A,(BC)
0309:	46      		LD      B,(HL)
030a:	41      		LD      B,C
030b:	69      		LD      L,C
030c:	14      		INC     D
030d:	55      		LD      D,L
030e:	1E 14   		LD      E,14H
0310:	41      		LD      B,C
0311:	0A      		LD      A,(BC)
0312:	14      		INC     D
0313:	FF      		RST     38H
0314:	80      		ADD     A,B
0315:	05      		DEC     B
0316:	64      		LD      H,H
0317:	5F      		LD      E,A
0318:	5F      		LD      E,A
0319:	46      		LD      B,(HL)
031a:	41      		LD      B,C
031b:	5A      		LD      E,D
031c:	FF      		RST     38H
031d:	80      		ADD     A,B
031e:	14      		INC     D
031f:	73      		LD      (HL),E
0320:	28 5F   		JR      Z,0381H
0322:	FF      		RST     38H
0323:	80      		ADD     A,B
0324:	01 CD 19		LD      BC,19CDH
0327:	FF      		RST     38H
0328:	03      		INC     BC
0329:	23      		INC     HL
032a:	28 5F   		JR      Z,038BH
032c:	82      		ADD     A,D
032d:	FF      		RST     38H
032e:	0E 14   		LD      C,14H
0330:	41      		LD      B,C
0331:	14      		INC     D
0332:	55      		LD      D,L
0333:	1E 78   		LD      E,78H
0335:	FF      		RST     38H
0336:	80      		ADD     A,B
0337:	FF      		RST     38H
0338:	03      		INC     BC
0339:	5F      		LD      E,A
033a:	46      		LD      B,(HL)
033b:	82      		ADD     A,D
033c:	14      		INC     D
033d:	73      		LD      (HL),E
033e:	28 5F   		JR      Z,039FH
0340:	F5      		PUSH    AF
0341:	C5      		PUSH    BC
0342:	0E 02   		LD      C,02H
0344:	06 10   		LD      B,10H
0346:	97      		SUB     A
0347:	5F      		LD      E,A
0348:	57      		LD      D,A
0349:	CD 45 12		CALL    1245H
034c:	32 F3 7B		LD      (7BF3H),A
034f:	FE 00   		CP      00H
0351:	20 23   		JR      NZ,0376H
0353:	79      		LD      A,C
0354:	07      		RLCA    
0355:	07      		RLCA    
0356:	07      		RLCA    
0357:	E6 08   		AND     08H
0359:	D3 01   		OUT     (01H),A
035b:	3E 0F   		LD      A,0FH
035d:	32 F2 7B		LD      (7BF2H),A
0360:	DD 21 60		LD      IX,0A460H
0364:	79      		LD      A,C
0365:	FE 02   		CP      02H
0367:	FD 21 E4		LD      IY,06E4H
036b:	28 04   		JR      Z,0371H
036d:	FD 21 EF		LD      IY,06EFH
0371:	CD 98 12		CALL    1298H
0374:	18 14   		JR      038AH
0376:	DD 21 A0		LD      IX,0B9A0H
037a:	C5      		PUSH    BC
037b:	97      		SUB     A
037c:	32 F2 7B		LD      (7BF2H),A
037f:	32 80 7C		LD      (7C80H),A
0382:	7A      		LD      A,D
0383:	CD B4 10		CALL    10B4H
0386:	CD C1 10		CALL    10C1H
0389:	C1      		POP     BC
038a:	C5      		PUSH    BC
038b:	06 C8   		LD      B,0C8H
038d:	CD AC 11		CALL    11ACH
0390:	C1      		POP     BC
0391:	05      		DEC     B
0392:	28 0C   		JR      Z,03A0H
0394:	3E 01   		LD      A,01H
0396:	82      		ADD     A,D
0397:	27      		DAA     
0398:	57      		LD      D,A
0399:	3E 11   		LD      A,11H
039b:	83      		ADD     A,E
039c:	5F      		LD      E,A
039d:	C3 49 03		JP      0349H
03a0:	0D      		DEC     C
03a1:	C2 44 03		JP      NZ,0344H
03a4:	97      		SUB     A
03a5:	32 F3 7B		LD      (7BF3H),A
03a8:	CD 45 12		CALL    1245H
03ab:	D3 01   		OUT     (01H),A
03ad:	CD D2 1A		CALL    1AD2H
03b0:	C1      		POP     BC
03b1:	F1      		POP     AF
03b2:	C9      		RET     

03b3:	F5      		PUSH    AF
03b4:	D9      		EXX     
03b5:	97      		SUB     A
03b6:	CD 45 12		CALL    1245H
03b9:	FD 21 00		LD      IY,8000H
03bd:	26 EC   		LD      H,0ECH
03bf:	11 0D 00		LD      DE,000DH
03c2:	0E 0B   		LD      C,0BH
03c4:	FD 36 00		LD      (IY+00H),07H
03c8:	FD 19   		ADD     IY,DE
03ca:	0D      		DEC     C
03cb:	20 F7   		JR      NZ,03C4H
03cd:	11 F9 FF		LD      DE,0FFF9H
03d0:	FD 19   		ADD     IY,DE
03d2:	25      		DEC     H
03d3:	20 EA   		JR      NZ,03BFH
03d5:	21 00 80		LD      HL,8000H
03d8:	16 88   		LD      D,88H
03da:	CB 7C   		BIT     7,H
03dc:	28 0E   		JR      Z,03ECH
03de:	36 77   		LD      (HL),77H
03e0:	23      		INC     HL
03e1:	15      		DEC     D
03e2:	20 F6   		JR      NZ,03DAH
03e4:	01 38 0C		LD      BC,0C38H
03e7:	09      		ADD     HL,BC
03e8:	CB 7C   		BIT     7,H
03ea:	20 EC   		JR      NZ,03D8H
03ec:	D9      		EXX     
03ed:	F1      		POP     AF
03ee:	C9      		RET     

03ef:	F5      		PUSH    AF
03f0:	C5      		PUSH    BC
03f1:	CD 76 04		CALL    0476H
03f4:	97      		SUB     A
03f5:	32 7C 7C		LD      (7C7CH),A
03f8:	CD 45 12		CALL    1245H
03fb:	CD D2 1A		CALL    1AD2H
03fe:	32 F3 7B		LD      (7BF3H),A
0401:	FD 21 2F		LD      IY,042FH
0405:	DD 21 2C		LD      IX,0A72CH
0409:	CD 98 12		CALL    1298H
040c:	FD 21 F0		LD      IY,04F0H
0410:	DD 21 97		LD      IX,9597H
0414:	21 00 80		LD      HL,8000H
0417:	11 BC 7C		LD      DE,7CBCH
041a:	CD 3B 04		CALL    043BH
041d:	FD 21 F8		LD      IY,04F8H
0421:	DD 21 B7		LD      IX,0CAB7H
0425:	21 01 80		LD      HL,8001H
0428:	13      		INC     DE
0429:	CD 3B 04		CALL    043BH
042c:	C1      		POP     BC
042d:	F1      		POP     AF
042e:	C9      		RET     

042f:	0B      		DEC     BC
0430:	FF      		RST     38H
0431:	07      		RLCA    
0432:	16 09   		LD      D,09H
0434:	04      		INC     B
0435:	05      		DEC     B
0436:	0F      		RRCA    
0437:	00      		NOP     
0438:	12      		LD      (DE),A
0439:	01 0D 22		LD      BC,220DH
043c:	B9      		CP      C
043d:	7C      		LD      A,H
043e:	06 01   		LD      B,01H
0440:	DD E5   		PUSH    IX
0442:	D5      		PUSH    DE
0443:	CD D9 04		CALL    04D9H
0446:	FD 23   		INC     IY
0448:	11 B8 03		LD      DE,03B8H
044b:	DD 19   		ADD     IX,DE
044d:	D1      		POP     DE
044e:	FD E5   		PUSH    IY
0450:	FD 21 5B		LD      IY,065BH
0454:	1A      		LD      A,(DE)
0455:	A0      		AND     B
0456:	FE 00   		CP      00H
0458:	28 09   		JR      Z,0463H
045a:	FD 21 5E		LD      IY,065EH
045e:	3E 01   		LD      A,01H
0460:	32 7C 7C		LD      (7C7CH),A
0463:	CD 93 12		CALL    1293H
0466:	FD E1   		POP     IY
0468:	DD E1   		POP     IX
046a:	D5      		PUSH    DE
046b:	11 FA FF		LD      DE,0FFFAH
046e:	DD 19   		ADD     IX,DE
0470:	D1      		POP     DE
0471:	CB 20   		SLA     B
0473:	20 CB   		JR      NZ,0440H
0475:	C9      		RET     

0476:	F5      		PUSH    AF
0477:	C5      		PUSH    BC
0478:	E5      		PUSH    HL
0479:	97      		SUB     A
047a:	21 BC 7C		LD      HL,7CBCH
047d:	77      		LD      (HL),A
047e:	23      		INC     HL
047f:	77      		LD      (HL),A
0480:	21 00 80		LD      HL,8000H
0483:	CD 8E 04		CALL    048EH
0486:	23      		INC     HL
0487:	CD 8E 04		CALL    048EH
048a:	E1      		POP     HL
048b:	C1      		POP     BC
048c:	F1      		POP     AF
048d:	C9      		RET     

048e:	3E FF   		LD      A,0FFH
0490:	0E 10   		LD      C,10H
0492:	CD 21 12		CALL    1221H
0495:	06 FF   		LD      B,0FFH
0497:	CD A0 04		CALL    04A0H
049a:	06 00   		LD      B,00H
049c:	CD A0 04		CALL    04A0H
049f:	C9      		RET     

04a0:	E5      		PUSH    HL
04a1:	D5      		PUSH    DE
04a2:	11 40 00		LD      DE,0040H
04a5:	7E      		LD      A,(HL)
04a6:	D3 00   		OUT     (00H),A
04a8:	B8      		CP      B
04a9:	C4 BF 04		CALL    NZ,04BFH
04ac:	78      		LD      A,B
04ad:	2F      		CPL     
04ae:	77      		LD      (HL),A
04af:	23      		INC     HL
04b0:	CB FC   		SET     7,H
04b2:	77      		LD      (HL),A
04b3:	23      		INC     HL
04b4:	15      		DEC     D
04b5:	C2 A5 04		JP      NZ,04A5H
04b8:	1D      		DEC     E
04b9:	C2 A5 04		JP      NZ,04A5H
04bc:	D1      		POP     DE
04bd:	E1      		POP     HL
04be:	C9      		RET     

04bf:	4F      		LD      C,A
04c0:	78      		LD      A,B
04c1:	E5      		PUSH    HL
04c2:	D5      		PUSH    DE
04c3:	FE 00   		CP      00H
04c5:	79      		LD      A,C
04c6:	28 01   		JR      Z,04C9H
04c8:	2F      		CPL     
04c9:	F5      		PUSH    AF
04ca:	7D      		LD      A,L
04cb:	21 BC 7C		LD      HL,7CBCH
04ce:	E6 01   		AND     01H
04d0:	28 01   		JR      Z,04D3H
04d2:	23      		INC     HL
04d3:	F1      		POP     AF
04d4:	B6      		OR      (HL)
04d5:	77      		LD      (HL),A
04d6:	D1      		POP     DE
04d7:	E1      		POP     HL
04d8:	C9      		RET     

04d9:	C5      		PUSH    BC
04da:	3E 07   		LD      A,07H
04dc:	32 F2 7B		LD      (7BF2H),A
04df:	21 31 17		LD      HL,1731H
04e2:	CD 67 16		CALL    1667H
04e5:	FD 7E 00		LD      A,(IY+00H)
04e8:	CD B4 10		CALL    10B4H
04eb:	CD F5 10		CALL    10F5H
04ee:	C1      		POP     BC
04ef:	C9      		RET     

04f0:	51      		LD      D,C
04f1:	50      		LD      D,B
04f2:	31 52 33		LD      SP,3352H
04f5:	48      		LD      C,B
04f6:	49      		LD      C,C
04f7:	32 53 54		LD      (5453H),A
04fa:	55      		LD      D,L
04fb:	34      		INC     (HL)
04fc:	57      		LD      D,A
04fd:	36 56   		LD      (HL),56H
04ff:	35      		DEC     (HL)
0500:	F5      		PUSH    AF
0501:	C5      		PUSH    BC
0502:	97      		SUB     A
0503:	32 7C 7C		LD      (7C7CH),A
0506:	CD 45 12		CALL    1245H
0509:	CD D2 1A		CALL    1AD2H
050c:	FD 21 D7		LD      IY,06D7H
0510:	DD 21 84		LD      IX,0A484H
0514:	CD 98 12		CALL    1298H
0517:	DD 21 CC		LD      IX,0B3CCH
051b:	FD 21 47		LD      IY,0547H
051f:	CD D9 04		CALL    04D9H
0522:	21 00 78		LD      HL,7800H
0525:	0E 08   		LD      C,08H
0527:	45      		LD      B,L
0528:	CD 48 05		CALL    0548H
052b:	01 B8 03		LD      BC,03B8H
052e:	DD 09   		ADD     IX,BC
0530:	FD 21 5B		LD      IY,065BH
0534:	FE 00   		CP      00H
0536:	28 09   		JR      Z,0541H
0538:	FD 21 5E		LD      IY,065EH
053c:	3E 01   		LD      A,01H
053e:	32 7C 7C		LD      (7C7CH),A
0541:	CD 93 12		CALL    1293H
0544:	C1      		POP     BC
0545:	F1      		POP     AF
0546:	C9      		RET     

0547:	12      		LD      (DE),A
0548:	56      		LD      D,(HL)
0549:	36 00   		LD      (HL),00H
054b:	7E      		LD      A,(HL)
054c:	FE 00   		CP      00H
054e:	20 11   		JR      NZ,0561H
0550:	35      		DEC     (HL)
0551:	7E      		LD      A,(HL)
0552:	FE FF   		CP      0FFH
0554:	20 0B   		JR      NZ,0561H
0556:	72      		LD      (HL),D
0557:	23      		INC     HL
0558:	10 EE   		DJNZ    0548H
055a:	D3 00   		OUT     (00H),A
055c:	0D      		DEC     C
055d:	20 E9   		JR      NZ,0548H
055f:	97      		SUB     A
0560:	C9      		RET     

0561:	3E FF   		LD      A,0FFH
0563:	C9      		RET     

0564:	F5      		PUSH    AF
0565:	C5      		PUSH    BC
0566:	97      		SUB     A
0567:	CD 45 12		CALL    1245H
056a:	CD D2 1A		CALL    1AD2H
056d:	FD 21 69		LD      IY,0669H
0571:	DD 21 96		LD      IX,8596H
0575:	CD 93 12		CALL    1293H
0578:	FD 21 BA		LD      IY,06BAH
057c:	DD 21 34		LD      IX,9F34H
0580:	CD 98 12		CALL    1298H
0583:	DD 21 21		LD      IX,0C421H
0587:	FD 21 26		LD      IY,0326H
058b:	CD 93 12		CALL    1293H
058e:	97      		SUB     A
058f:	D3 06   		OUT     (06H),A
0591:	3E 80   		LD      A,80H
0593:	D3 02   		OUT     (02H),A
0595:	3E 01   		LD      A,01H
0597:	D3 06   		OUT     (06H),A
0599:	D3 02   		OUT     (02H),A
059b:	3E 07   		LD      A,07H
059d:	D3 06   		OUT     (06H),A
059f:	3E FE   		LD      A,0FEH
05a1:	D3 02   		OUT     (02H),A
05a3:	3E 08   		LD      A,08H
05a5:	D3 06   		OUT     (06H),A
05a7:	97      		SUB     A
05a8:	D3 02   		OUT     (02H),A
05aa:	DB 02   		IN      A,(02H)
05ac:	D3 00   		OUT     (00H),A
05ae:	2F      		CPL     
05af:	CB 57   		BIT     2,A
05b1:	20 17   		JR      NZ,05CAH
05b3:	FE 00   		CP      00H
05b5:	28 04   		JR      Z,05BBH
05b7:	3E 0F   		LD      A,0FH
05b9:	18 0B   		JR      05C6H
05bb:	DB 01   		IN      A,(01H)
05bd:	2F      		CPL     
05be:	E6 0C   		AND     0CH
05c0:	FE 00   		CP      00H
05c2:	28 02   		JR      Z,05C6H
05c4:	18 F1   		JR      05B7H
05c6:	D3 02   		OUT     (02H),A
05c8:	18 E0   		JR      05AAH
05ca:	97      		SUB     A
05cb:	D3 02   		OUT     (02H),A
05cd:	C1      		POP     BC
05ce:	F1      		POP     AF
05cf:	C3 8E 01		JP      018EH
05d2:	F5      		PUSH    AF
05d3:	C5      		PUSH    BC
05d4:	97      		SUB     A
05d5:	32 7C 7C		LD      (7C7CH),A
05d8:	CD 45 12		CALL    1245H
05db:	CD D2 1A		CALL    1AD2H
05de:	FD 21 AC		LD      IY,06ACH
05e2:	DD 21 DC		LD      IX,0A1DCH
05e6:	CD 98 12		CALL    1298H
05e9:	06 08   		LD      B,08H
05eb:	DD 21 4A		LD      IX,904AH
05ef:	FD 21 53		LD      IY,0653H
05f3:	DD E5   		PUSH    IX
05f5:	CD D9 04		CALL    04D9H
05f8:	DD E1   		POP     IX
05fa:	11 F8 FF		LD      DE,0FFF8H
05fd:	DD 19   		ADD     IX,DE
05ff:	FD 23   		INC     IY
0601:	10 F0   		DJNZ    05F3H
0603:	DD 21 92		LD      IX,9D92H
0607:	FD 21 73		LD      IY,0073H
060b:	21 00 70		LD      HL,7000H		;Load mask for ROM 11, as it is checksummed first
060e:	0E 08   		LD      C,08H			;Load range for ROM 11 (0x0800 = 2048 bytes)
0610:	45      		LD      B,L
0611:	CD 26 06		CALL    0626H			;GOSUB: CHECKSUM
0614:	06 07   		LD      B,07H
0616:	21 00 00		LD      HL,0000H		;Load mask for ROM 10 (all subsequent ROM masks increment from 0 to 6)
0619:	C5      		PUSH    BC				
061a:	01 10 00		LD      BC,0010H		;Load range for ROM 11 (0x1000 = 4096 bytes)
061d:	CD 26 06		CALL    0626H			;GOSUB: CHECKSUM
0620:	C1      		POP     BC
0621:	10 F6   		DJNZ    0619H
0623:	C1      		POP     BC
0624:	F1      		POP     AF
0625:	C9      		RET     

;SUBROUTINE: CHECKSUM - Perform ROM checksums

0626:	3E 07   		LD      A,07H			;Initialize the ROM counter
0628:	32 F2 7B		LD      (7BF2H),A		
062b:	97      		SUB     A
062c:	FD 23   		INC     IY
062e:	86      		ADD     A,(HL)			;Loop through all addresses in range HL
062f:	23      		INC     HL
0630:	10 FC   		DJNZ    062EH
0632:	0D      		DEC     C
0633:	20 F9   		JR      NZ,062EH
0635:	FD 86 00		ADD     A,(IY+00H)		;Add the checksum complement to A
0638:	FD E5   		PUSH    IY
063a:	FD 21 5B		LD      IY,065BH
063e:	FE 00   		CP      00H				;Compare A to $00 - for a valid checksum, A will contain $00
0640:	28 09   		JR      Z,064BH			;Valid checksum skips to the status output subroutine
0642:	FD 21 5E		LD      IY,065EH
0646:	3E 01   		LD      A,01H			;Set CHECKSUM_INVALID_FLAG = TRUE
0648:	32 7C 7C		LD      (7C7CH),A
064b:	CD 93 12		CALL    1293H			;GOSUB: ROM_STATUS_OUTPUT
064e:	DD 19   		ADD     IX,DE
0650:	FD E1   		POP     IY
0652:	C9      		RET     

0653:	11 10 09		LD      DE,0910H
0656:	08      		EX      AF,AF'
0657:	07      		RLCA    
0658:	06 05   		LD      B,05H
065a:	04      		INC     B
065b:	02      		LD      (BC),A
065c:	46      		LD      B,(HL)
065d:	32 0A FF		LD      (0FF0AH),A
0660:	01 41 46		LD      BC,4641H
0663:	5F      		LD      E,A
0664:	82      		ADD     A,D
0665:	FF      		RST     38H
0666:	08      		EX      AF,AF'
0667:	46      		LD      B,(HL)
0668:	32 40 FF		LD      (0FF40H),A
066b:	03      		INC     BC
066c:	4B      		LD      C,E
066d:	64      		LD      H,H
066e:	5A      		LD      E,D
066f:	23      		INC     HL
0670:	82      		ADD     A,D
0671:	05      		DEC     B
0672:	64      		LD      H,H
0673:	5F      		LD      E,A
0674:	5F      		LD      E,A
0675:	46      		LD      B,(HL)
0676:	41      		LD      B,C
0677:	5A      		LD      E,D
0678:	82      		ADD     A,D
0679:	5F      		LD      E,A
067a:	46      		LD      B,(HL)
067b:	82      		ADD     A,D
067c:	5F      		LD      E,A
067d:	14      		INC     D
067e:	5A      		LD      E,D
067f:	5F      		LD      E,A
0680:	82      		ADD     A,D
0681:	FF      		RST     38H
0682:	80      		ADD     A,B
0683:	00      		NOP     
0684:	82      		ADD     A,D
0685:	5F      		LD      E,A
0686:	46      		LD      B,(HL)
0687:	41      		LD      B,C
0688:	14      		INC     D
0689:	82      		ADD     A,D
068a:	6E      		LD      L,(HL)
068b:	28 37   		JR      Z,06C4H
068d:	37      		SCF     
068e:	82      		ADD     A,D
068f:	5A      		LD      E,D
0690:	46      		LD      B,(HL)
0691:	64      		LD      H,H
0692:	41      		LD      B,C
0693:	0F      		RRCA    
0694:	82      		ADD     A,D
0695:	28 19   		JR      Z,06B0H
0697:	82      		ADD     A,D
0698:	FF      		RST     38H
0699:	80      		ADD     A,B
069a:	5F      		LD      E,A
069b:	23      		INC     HL
069c:	14      		INC     D
069d:	82      		ADD     A,D
069e:	05      		DEC     B
069f:	64      		LD      H,H
06a0:	5F      		LD      E,A
06a1:	5F      		LD      E,A
06a2:	46      		LD      B,(HL)
06a3:	41      		LD      B,C
06a4:	82      		ADD     A,D
06a5:	28 5A   		JR      Z,0701H
06a7:	82      		ADD     A,D
06a8:	46      		LD      B,(HL)
06a9:	32 FF 08		LD      (08FFH),A
06ac:	0D      		DEC     C
06ad:	FF      		RST     38H
06ae:	07      		RLCA    
06af:	05      		DEC     B
06b0:	10 12   		DJNZ    06C4H
06b2:	0F      		RRCA    
06b3:	0D      		DEC     C
06b4:	00      		NOP     
06b5:	03      		INC     BC
06b6:	08      		EX      AF,AF'
06b7:	05      		DEC     B
06b8:	03      		INC     BC
06b9:	0B      		DEC     BC
06ba:	0E FF   		LD      C,0FFH
06bc:	07      		RLCA    
06bd:	02      		LD      (BC),A
06be:	15      		DEC     D
06bf:	14      		INC     D
06c0:	14      		INC     D
06c1:	0F      		RRCA    
06c2:	0E 00   		LD      C,00H
06c4:	03      		INC     BC
06c5:	08      		EX      AF,AF'
06c6:	05      		DEC     B
06c7:	03      		INC     BC
06c8:	0B      		DEC     BC
06c9:	0D      		DEC     C
06ca:	FF      		RST     38H
06cb:	07      		RLCA    
06cc:	04      		INC     B
06cd:	09      		ADD     HL,BC
06ce:	01 07 0E		LD      BC,0E07H
06d1:	0F      		RRCA    
06d2:	13      		INC     DE
06d3:	14      		INC     D
06d4:	09      		ADD     HL,BC
06d5:	03      		INC     BC
06d6:	13      		INC     DE
06d7:	0C      		INC     C
06d8:	FF      		RST     38H
06d9:	07      		RLCA    
06da:	13      		INC     DE
06db:	03      		INC     BC
06dc:	12      		LD      (DE),A
06dd:	01 14 03		LD      BC,0314H
06e0:	08      		EX      AF,AF'
06e1:	10 01   		DJNZ    06E4H
06e3:	04      		INC     B
06e4:	0A      		LD      A,(BC)
06e5:	10 01   		DJNZ    06E8H
06e7:	0C      		INC     C
06e8:	0C      		INC     C
06e9:	05      		DEC     B
06ea:	14      		INC     D
06eb:	14      		INC     D
06ec:	05      		DEC     B
06ed:	00      		NOP     
06ee:	1C      		INC     E
06ef:	0A      		LD      A,(BC)
06f0:	10 01   		DJNZ    06F3H
06f2:	0C      		INC     C
06f3:	0C      		INC     C
06f4:	05      		DEC     B
06f5:	14      		INC     D
06f6:	14      		INC     D
06f7:	05      		DEC     B
06f8:	00      		NOP     
06f9:	1D      		DEC     E
06fa:	0F      		RRCA    
06fb:	FF      		RST     38H
06fc:	07      		RLCA    
06fd:	03      		INC     BC
06fe:	0F      		RRCA    
06ff:	0E 06   		LD      C,06H
0701:	09      		ADD     HL,BC
0702:	07      		RLCA    
0703:	15      		DEC     D
0704:	12      		LD      (DE),A
0705:	01 14 09		LD      BC,0914H
0708:	0F      		RRCA    
0709:	0E F5   		LD      C,0F5H
070b:	C5      		PUSH    BC
070c:	97      		SUB     A
070d:	CD 45 12		CALL    1245H
0710:	CD D2 1A		CALL    1AD2H
0713:	FD 21 FA		LD      IY,06FAH
0717:	DD 21 9C		LD      IX,9D9CH
071b:	CD 98 12		CALL    1298H
071e:	FD 21 60		LD      IY,0860H
0722:	DD 21 48		LD      IX,8848H
0726:	CD 93 12		CALL    1293H
0729:	DB 00   		IN      A,(00H)
072b:	32 BB 7C		LD      (7CBBH),A
072e:	DD 21 D8		LD      IX,91D8H
0732:	11 FC FF		LD      DE,0FFFCH
0735:	06 08   		LD      B,08H
0737:	21 2D 08		LD      HL,082DH
073a:	FD 21 81		LD      IY,0881H
073e:	3A BB 7C		LD      A,(7CBBH)
0741:	2F      		CPL     
0742:	A6      		AND     (HL)
0743:	23      		INC     HL
0744:	20 04   		JR      NZ,074AH
0746:	FD 21 87		LD      IY,0887H
074a:	CD 93 12		CALL    1293H
074d:	DD 19   		ADD     IX,DE
074f:	10 E9   		DJNZ    073AH
0751:	3E 01   		LD      A,01H
0753:	32 80 7C		LD      (7C80H),A
0756:	3A BB 7C		LD      A,(7CBBH)
0759:	E6 01   		AND     01H
075b:	3C      		INC     A
075c:	DD 21 C8		LD      IX,0A1C8H
0760:	CD B4 10		CALL    10B4H
0763:	CD F5 10		CALL    10F5H
0766:	FD 21 8D		LD      IY,088DH
076a:	DD 21 F0		LD      IX,0ACF0H
076e:	CD 93 12		CALL    1293H
0771:	DD 21 C2		LD      IX,0A1C2H
0775:	3E 01   		LD      A,01H
0777:	32 80 7C		LD      (7C80H),A
077a:	3A BB 7C		LD      A,(7CBBH)
077d:	CD 35 08		CALL    0835H
0780:	CD B4 10		CALL    10B4H
0783:	CD F5 10		CALL    10F5H
0786:	FD 21 9E		LD      IY,089EH
078a:	DD 21 EA		LD      IX,0ACEAH
078e:	CD 93 12		CALL    1293H
0791:	DD 21 F2		LD      IX,0E0F2H
0795:	3E 01   		LD      A,01H
0797:	32 80 7C		LD      (7C80H),A
079a:	3A BB 7C		LD      A,(7CBBH)
079d:	CD 47 08		CALL    0847H
07a0:	57      		LD      D,A
07a1:	3C      		INC     A
07a2:	CD B4 10		CALL    10B4H
07a5:	CD F5 10		CALL    10F5H
07a8:	FD 21 AF		LD      IY,08AFH
07ac:	DD 21 72		LD      IX,0A572H
07b0:	CD 93 12		CALL    1293H
07b3:	CD F9 08		CALL    08F9H
07b6:	FD 21 C8		LD      IY,08C8H
07ba:	DD 21 7E		LD      IX,0D97EH
07be:	CD 93 12		CALL    1293H
07c1:	FD 21 CF		LD      IY,08CFH
07c5:	DD 21 68		LD      IX,0A568H
07c9:	CD 93 12		CALL    1293H
07cc:	DD 21 78		LD      IX,0D978H
07d0:	3E 01   		LD      A,01H
07d2:	32 80 7C		LD      (7C80H),A
07d5:	3A BB 7C		LD      A,(7CBBH)
07d8:	CB 5F   		BIT     3,A
07da:	3E 02   		LD      A,02H
07dc:	28 02   		JR      Z,07E0H
07de:	3E 10   		LD      A,10H
07e0:	82      		ADD     A,D
07e1:	27      		DAA     
07e2:	CD B4 10		CALL    10B4H
07e5:	CD F5 10		CALL    10F5H
07e8:	FD 21 DD		LD      IY,08DDH
07ec:	DD 21 E8		LD      IX,0E0E8H
07f0:	CD 93 12		CALL    1293H
07f3:	FD 21 E6		LD      IY,08E6H
07f7:	DD 21 64		LD      IX,0A564H
07fb:	CD 93 12		CALL    1293H
07fe:	DD 21 0C		LD      IX,0EC0CH
0802:	FD 21 87		LD      IY,0887H
0806:	3A BB 7C		LD      A,(7CBBH)
0809:	CB 7F   		BIT     7,A
080b:	20 04   		JR      NZ,0811H
080d:	FD 21 81		LD      IY,0881H
0811:	CD 93 12		CALL    1293H
0814:	DD 21 21		LD      IX,0C421H
0818:	FD 21 26		LD      IY,0326H
081c:	CD 93 12		CALL    1293H
081f:	DB 02   		IN      A,(02H)
0821:	D3 00   		OUT     (00H),A
0823:	CB 57   		BIT     2,A
0825:	C2 29 07		JP      NZ,0729H
0828:	C1      		POP     BC
0829:	F1      		POP     AF
082a:	C3 8E 01		JP      018EH
082d:	01 10 40		LD      BC,4010H
0830:	02      		LD      (BC),A
0831:	20 04   		JR      NZ,0837H
0833:	08      		EX      AF,AF'
0834:	80      		ADD     A,B
0835:	D5      		PUSH    DE
0836:	0F      		RRCA    
0837:	0F      		RRCA    
0838:	0F      		RRCA    
0839:	0F      		RRCA    
083a:	0F      		RRCA    
083b:	CB 12   		RL      D
083d:	0F      		RRCA    
083e:	CB 1A   		RR      D
0840:	17      		RLA     
0841:	E6 03   		AND     03H
0843:	C6 03   		ADD     A,03H
0845:	D1      		POP     DE
0846:	C9      		RET     

0847:	D5      		PUSH    DE
0848:	0F      		RRCA    
0849:	0F      		RRCA    
084a:	CB 1A   		RR      D
084c:	0F      		RRCA    
084d:	CB 1B   		RR      E
084f:	0F      		RRCA    
0850:	0F      		RRCA    
0851:	0F      		RRCA    
0852:	CB 1A   		RR      D
0854:	CB 13   		RL      E
0856:	CB 1A   		RR      D
0858:	7A      		LD      A,D
0859:	07      		RLCA    
085a:	07      		RLCA    
085b:	07      		RLCA    
085c:	E6 07   		AND     07H
085e:	D1      		POP     DE
085f:	C9      		RET     

0860:	20 5A   		JR      NZ,08BCH
0862:	8C      		ADC     A,H
0863:	FF      		RST     38H
0864:	80      		ADD     A,B
0865:	5A      		LD      E,D
0866:	91      		SUB     C
0867:	FF      		RST     38H
0868:	80      		ADD     A,B
0869:	5A      		LD      E,D
086a:	96      		SUB     (HL)
086b:	FF      		RST     38H
086c:	80      		ADD     A,B
086d:	5A      		LD      E,D
086e:	9B      		SBC     A,E
086f:	FF      		RST     38H
0870:	80      		ADD     A,B
0871:	5A      		LD      E,D
0872:	A0      		AND     B
0873:	FF      		RST     38H
0874:	80      		ADD     A,B
0875:	5A      		LD      E,D
0876:	A5      		AND     L
0877:	FF      		RST     38H
0878:	80      		ADD     A,B
0879:	5A      		LD      E,D
087a:	AA      		XOR     D
087b:	FF      		RST     38H
087c:	80      		ADD     A,B
087d:	5A      		LD      E,D
087e:	AF      		XOR     A
087f:	FF      		RST     38H
0880:	80      		ADD     A,B
0881:	05      		DEC     B
0882:	FF      		RST     38H
0883:	07      		RLCA    
0884:	46      		LD      B,(HL)
0885:	41      		LD      B,C
0886:	82      		ADD     A,D
0887:	05      		DEC     B
0888:	FF      		RST     38H
0889:	07      		RLCA    
088a:	46      		LD      B,(HL)
088b:	19      		ADD     HL,DE
088c:	19      		ADD     HL,DE
088d:	10 0A   		DJNZ    0899H
088f:	55      		LD      D,L
0890:	14      		INC     D
0891:	0F      		RRCA    
0892:	28 5F   		JR      Z,08F3H
0894:	5A      		LD      E,D
0895:	82      		ADD     A,D
0896:	4B      		LD      C,E
0897:	14      		INC     D
0898:	55      		LD      D,L
0899:	82      		ADD     A,D
089a:	0A      		LD      A,(BC)
089b:	46      		LD      B,(HL)
089c:	28 41   		JR      Z,08DFH
089e:	10 1E   		DJNZ    08BEH
08a0:	37      		SCF     
08a1:	46      		LD      B,(HL)
08a2:	05      		DEC     B
08a3:	5A      		LD      E,D
08a4:	82      		ADD     A,D
08a5:	4B      		LD      C,E
08a6:	14      		INC     D
08a7:	55      		LD      D,L
08a8:	82      		ADD     A,D
08a9:	0A      		LD      A,(BC)
08aa:	55      		LD      D,L
08ab:	14      		INC     D
08ac:	0F      		RRCA    
08ad:	28 5F   		JR      Z,090EH
08af:	18 0F   		JR      08C0H
08b1:	28 19   		JR      Z,08CCH
08b3:	19      		ADD     HL,DE
08b4:	28 0A   		JR      Z,08C0H
08b6:	64      		LD      H,H
08b7:	37      		SCF     
08b8:	5F      		LD      E,A
08b9:	78      		LD      A,B
08ba:	82      		ADD     A,D
08bb:	37      		SCF     
08bc:	14      		INC     D
08bd:	69      		LD      L,C
08be:	14      		INC     D
08bf:	37      		SCF     
08c0:	FF      		RST     38H
08c1:	80      		ADD     A,B
08c2:	14      		INC     D
08c3:	00      		NOP     
08c4:	5A      		LD      E,D
08c5:	78      		LD      A,B
08c6:	FF      		RST     38H
08c7:	01 06 FF		LD      BC,0FF06H
08ca:	07      		RLCA    
08cb:	23      		INC     HL
08cc:	00      		NOP     
08cd:	55      		LD      D,L
08ce:	0F      		RRCA    
08cf:	0D      		DEC     C
08d0:	14      		INC     D
08d1:	73      		LD      (HL),E
08d2:	5F      		LD      E,A
08d3:	55      		LD      D,L
08d4:	00      		NOP     
08d5:	82      		ADD     A,D
08d6:	1E 37   		LD      E,37H
08d8:	46      		LD      B,(HL)
08d9:	05      		DEC     B
08da:	82      		ADD     A,D
08db:	00      		NOP     
08dc:	5F      		LD      E,A
08dd:	08      		EX      AF,AF'
08de:	87      		ADD     A,A
08df:	87      		ADD     A,A
08e0:	87      		ADD     A,A
08e1:	87      		ADD     A,A
08e2:	82      		ADD     A,D
08e3:	4B      		LD      C,E
08e4:	5F      		LD      E,A
08e5:	5A      		LD      E,D
08e6:	12      		LD      (DE),A
08e7:	00      		NOP     
08e8:	5F      		LD      E,A
08e9:	5F      		LD      E,A
08ea:	55      		LD      D,L
08eb:	00      		NOP     
08ec:	0A      		LD      A,(BC)
08ed:	5F      		LD      E,A
08ee:	82      		ADD     A,D
08ef:	3C      		INC     A
08f0:	46      		LD      B,(HL)
08f1:	0F      		RRCA    
08f2:	14      		INC     D
08f3:	82      		ADD     A,D
08f4:	5A      		LD      E,D
08f5:	46      		LD      B,(HL)
08f6:	64      		LD      H,H
08f7:	41      		LD      B,C
08f8:	0F      		RRCA    
08f9:	D5      		PUSH    DE
08fa:	E5      		PUSH    HL
08fb:	47      		LD      B,A
08fc:	3E 09   		LD      A,09H
08fe:	90      		SUB     B
08ff:	4F      		LD      C,A
0900:	DD 21 06		LD      IX,0B806H
0904:	21 B3 17		LD      HL,17B3H
0907:	CD 67 16		CALL    1667H
090a:	10 FB   		DJNZ    0907H
090c:	97      		SUB     A
090d:	32 F2 7B		LD      (7BF2H),A
0910:	41      		LD      B,C
0911:	11 90 F8		LD      DE,0F890H
0914:	DD 21 C6		LD      IX,0D5C6H
0918:	21 B3 17		LD      HL,17B3H
091b:	CD 67 16		CALL    1667H
091e:	DD 19   		ADD     IX,DE
0920:	10 F9   		DJNZ    091BH
0922:	21 F7 B6		LD      HL,0B6F7H
0925:	01 02 03		LD      BC,0302H
0928:	11 B8 03		LD      DE,03B8H
092b:	3E 09   		LD      A,09H
092d:	F5      		PUSH    AF
092e:	3E 77   		LD      A,77H
0930:	CD 4F 11		CALL    114FH
0933:	F1      		POP     AF
0934:	19      		ADD     HL,DE
0935:	3D      		DEC     A
0936:	20 F5   		JR      NZ,092DH
0938:	E1      		POP     HL
0939:	D1      		POP     DE
093a:	C9      		RET     

093b:	F5      		PUSH    AF
093c:	C5      		PUSH    BC
093d:	E5      		PUSH    HL
093e:	21 16 7D		LD      HL,7D16H
0941:	3E 20   		LD      A,20H
0943:	06 00   		LD      B,00H
0945:	70      		LD      (HL),B
0946:	23      		INC     HL
0947:	70      		LD      (HL),B
0948:	23      		INC     HL
0949:	3D      		DEC     A
094a:	F5      		PUSH    AF
094b:	CD 48 0B		CALL    0B48H
094e:	F1      		POP     AF
094f:	20 F4   		JR      NZ,0945H
0951:	3E F8   		LD      A,0F8H
0953:	32 24 7D		LD      (7D24H),A
0956:	47      		LD      B,A
0957:	3E 07   		LD      A,07H
0959:	CD 48 0B		CALL    0B48H
095c:	21 BE 7C		LD      HL,7CBEH
095f:	06 0C   		LD      B,0CH
0961:	97      		SUB     A
0962:	77      		LD      (HL),A
0963:	23      		INC     HL
0964:	10 FC   		DJNZ    0962H
0966:	E1      		POP     HL
0967:	C1      		POP     BC
0968:	F1      		POP     AF
0969:	C9      		RET     

096a:	F5      		PUSH    AF
096b:	C5      		PUSH    BC
096c:	D5      		PUSH    DE
096d:	E5      		PUSH    HL
096e:	06 00   		LD      B,00H
0970:	11 04 00		LD      DE,0004H
0973:	21 BE 7C		LD      HL,7CBEH
0976:	7E      		LD      A,(HL)
0977:	FE 00   		CP      00H
0979:	C4 91 09		CALL    NZ,0991H
097c:	19      		ADD     HL,DE
097d:	04      		INC     B
097e:	7E      		LD      A,(HL)
097f:	FE 00   		CP      00H
0981:	C4 91 09		CALL    NZ,0991H
0984:	19      		ADD     HL,DE
0985:	04      		INC     B
0986:	7E      		LD      A,(HL)
0987:	FE 00   		CP      00H
0989:	C4 91 09		CALL    NZ,0991H
098c:	E1      		POP     HL
098d:	D1      		POP     DE
098e:	C1      		POP     BC
098f:	F1      		POP     AF
0990:	C9      		RET     

0991:	C5      		PUSH    BC
0992:	D5      		PUSH    DE
0993:	E5      		PUSH    HL
0994:	78      		LD      A,B
0995:	32 57 7D		LD      (7D57H),A
0998:	23      		INC     HL
0999:	23      		INC     HL
099a:	E5      		PUSH    HL
099b:	5E      		LD      E,(HL)
099c:	23      		INC     HL
099d:	56      		LD      D,(HL)
099e:	1A      		LD      A,(DE)
099f:	E6 E0   		AND     0E0H
09a1:	07      		RLCA    
09a2:	07      		RLCA    
09a3:	07      		RLCA    
09a4:	D5      		PUSH    DE
09a5:	21 B0 09		LD      HL,09B0H
09a8:	5F      		LD      E,A
09a9:	07      		RLCA    
09aa:	83      		ADD     A,E
09ab:	16 00   		LD      D,00H
09ad:	5F      		LD      E,A
09ae:	19      		ADD     HL,DE
09af:	E9      		JP      (HL)
09b0:	C3 CC 09		JP      09CCH
09b3:	C3 E7 09		JP      09E7H
09b6:	C3 00 0A		JP      0A00H
09b9:	C3 27 0A		JP      0A27H
09bc:	C3 48 0A		JP      0A48H
09bf:	C3 B4 0A		JP      0AB4H
09c2:	C3 EE 0A		JP      0AEEH
09c5:	C3 F7 0A		JP      0AF7H
09c8:	E1      		POP     HL
09c9:	D1      		POP     DE
09ca:	C1      		POP     BC
09cb:	C9      		RET     

09cc:	E1      		POP     HL
09cd:	7E      		LD      A,(HL)
09ce:	E6 1F   		AND     1FH
09d0:	23      		INC     HL
09d1:	46      		LD      B,(HL)
09d2:	23      		INC     HL
09d3:	E5      		PUSH    HL
09d4:	CD 48 0B		CALL    0B48H
09d7:	07      		RLCA    
09d8:	16 00   		LD      D,00H
09da:	5F      		LD      E,A
09db:	21 16 7D		LD      HL,7D16H
09de:	19      		ADD     HL,DE
09df:	70      		LD      (HL),B
09e0:	23      		INC     HL
09e1:	36 00   		LD      (HL),00H
09e3:	D1      		POP     DE
09e4:	C3 9E 09		JP      099EH
09e7:	E1      		POP     HL
09e8:	7E      		LD      A,(HL)
09e9:	E6 1F   		AND     1FH
09eb:	23      		INC     HL
09ec:	4E      		LD      C,(HL)
09ed:	23      		INC     HL
09ee:	46      		LD      B,(HL)
09ef:	23      		INC     HL
09f0:	E5      		PUSH    HL
09f1:	07      		RLCA    
09f2:	16 00   		LD      D,00H
09f4:	5F      		LD      E,A
09f5:	21 CA 7C		LD      HL,7CCAH
09f8:	19      		ADD     HL,DE
09f9:	71      		LD      (HL),C
09fa:	23      		INC     HL
09fb:	70      		LD      (HL),B
09fc:	D1      		POP     DE
09fd:	C3 9E 09		JP      099EH
0a00:	E1      		POP     HL
0a01:	7E      		LD      A,(HL)
0a02:	E6 1F   		AND     1FH
0a04:	23      		INC     HL
0a05:	4E      		LD      C,(HL)
0a06:	23      		INC     HL
0a07:	46      		LD      B,(HL)
0a08:	23      		INC     HL
0a09:	E5      		PUSH    HL
0a0a:	F5      		PUSH    AF
0a0b:	07      		RLCA    
0a0c:	16 00   		LD      D,00H
0a0e:	5F      		LD      E,A
0a0f:	21 16 7D		LD      HL,7D16H
0a12:	19      		ADD     HL,DE
0a13:	E5      		PUSH    HL
0a14:	7E      		LD      A,(HL)
0a15:	23      		INC     HL
0a16:	6E      		LD      L,(HL)
0a17:	67      		LD      H,A
0a18:	09      		ADD     HL,BC
0a19:	44      		LD      B,H
0a1a:	4D      		LD      C,L
0a1b:	E1      		POP     HL
0a1c:	70      		LD      (HL),B
0a1d:	23      		INC     HL
0a1e:	71      		LD      (HL),C
0a1f:	F1      		POP     AF
0a20:	CD 48 0B		CALL    0B48H
0a23:	D1      		POP     DE
0a24:	C3 9E 09		JP      099EH
0a27:	E1      		POP     HL
0a28:	7E      		LD      A,(HL)
0a29:	E6 1F   		AND     1FH
0a2b:	23      		INC     HL
0a2c:	46      		LD      B,(HL)
0a2d:	23      		INC     HL
0a2e:	E5      		PUSH    HL
0a2f:	07      		RLCA    
0a30:	16 00   		LD      D,00H
0a32:	5F      		LD      E,A
0a33:	21 16 7D		LD      HL,7D16H
0a36:	19      		ADD     HL,DE
0a37:	7E      		LD      A,(HL)
0a38:	B8      		CP      B
0a39:	28 07   		JR      Z,0A42H
0a3b:	E1      		POP     HL
0a3c:	5E      		LD      E,(HL)
0a3d:	23      		INC     HL
0a3e:	56      		LD      D,(HL)
0a3f:	C3 F0 0A		JP      0AF0H
0a42:	D1      		POP     DE
0a43:	13      		INC     DE
0a44:	13      		INC     DE
0a45:	C3 9E 09		JP      099EH
0a48:	E1      		POP     HL
0a49:	7E      		LD      A,(HL)
0a4a:	E6 1F   		AND     1FH
0a4c:	23      		INC     HL
0a4d:	46      		LD      B,(HL)
0a4e:	23      		INC     HL
0a4f:	4E      		LD      C,(HL)
0a50:	23      		INC     HL
0a51:	E5      		PUSH    HL
0a52:	F5      		PUSH    AF
0a53:	07      		RLCA    
0a54:	16 00   		LD      D,00H
0a56:	5F      		LD      E,A
0a57:	21 16 7D		LD      HL,7D16H
0a5a:	19      		ADD     HL,DE
0a5b:	97      		SUB     A
0a5c:	BE      		CP      (HL)
0a5d:	28 06   		JR      Z,0A65H
0a5f:	35      		DEC     (HL)
0a60:	F1      		POP     AF
0a61:	D1      		POP     DE
0a62:	C3 9E 09		JP      099EH
0a65:	78      		LD      A,B
0a66:	E6 E0   		AND     0E0H
0a68:	07      		RLCA    
0a69:	07      		RLCA    
0a6a:	07      		RLCA    
0a6b:	07      		RLCA    
0a6c:	16 00   		LD      D,00H
0a6e:	5F      		LD      E,A
0a6f:	21 CA 7C		LD      HL,7CCAH
0a72:	19      		ADD     HL,DE
0a73:	5E      		LD      E,(HL)
0a74:	23      		INC     HL
0a75:	56      		LD      D,(HL)
0a76:	F1      		POP     AF
0a77:	E5      		PUSH    HL
0a78:	07      		RLCA    
0a79:	D5      		PUSH    DE
0a7a:	16 00   		LD      D,00H
0a7c:	5F      		LD      E,A
0a7d:	21 16 7D		LD      HL,7D16H
0a80:	19      		ADD     HL,DE
0a81:	D1      		POP     DE
0a82:	1A      		LD      A,(DE)
0a83:	77      		LD      (HL),A
0a84:	13      		INC     DE
0a85:	78      		LD      A,B
0a86:	E6 1F   		AND     1FH
0a88:	32 56 7D		LD      (7D56H),A
0a8b:	79      		LD      A,C
0a8c:	07      		RLCA    
0a8d:	D5      		PUSH    DE
0a8e:	16 00   		LD      D,00H
0a90:	5F      		LD      E,A
0a91:	21 16 7D		LD      HL,7D16H
0a94:	19      		ADD     HL,DE
0a95:	D1      		POP     DE
0a96:	1A      		LD      A,(DE)
0a97:	13      		INC     DE
0a98:	47      		LD      B,A
0a99:	79      		LD      A,C
0a9a:	CD 48 0B		CALL    0B48H
0a9d:	0C      		INC     C
0a9e:	70      		LD      (HL),B
0a9f:	23      		INC     HL
0aa0:	36 00   		LD      (HL),00H
0aa2:	23      		INC     HL
0aa3:	3A 56 7D		LD      A,(7D56H)
0aa6:	3D      		DEC     A
0aa7:	32 56 7D		LD      (7D56H),A
0aaa:	20 EA   		JR      NZ,0A96H
0aac:	E1      		POP     HL
0aad:	72      		LD      (HL),D
0aae:	2B      		DEC     HL
0aaf:	73      		LD      (HL),E
0ab0:	D1      		POP     DE
0ab1:	C3 9E 09		JP      099EH
0ab4:	E1      		POP     HL
0ab5:	7E      		LD      A,(HL)
0ab6:	E6 1F   		AND     1FH
0ab8:	23      		INC     HL
0ab9:	F5      		PUSH    AF
0aba:	E5      		PUSH    HL
0abb:	3A 57 7D		LD      A,(7D57H)
0abe:	07      		RLCA    
0abf:	07      		RLCA    
0ac0:	16 00   		LD      D,00H
0ac2:	5F      		LD      E,A
0ac3:	21 BE 7C		LD      HL,7CBEH
0ac6:	19      		ADD     HL,DE
0ac7:	46      		LD      B,(HL)
0ac8:	23      		INC     HL
0ac9:	4E      		LD      C,(HL)
0aca:	79      		LD      A,C
0acb:	07      		RLCA    
0acc:	16 00   		LD      D,00H
0ace:	5F      		LD      E,A
0acf:	21 D6 7C		LD      HL,7CD6H
0ad2:	19      		ADD     HL,DE
0ad3:	D1      		POP     DE
0ad4:	73      		LD      (HL),E
0ad5:	23      		INC     HL
0ad6:	72      		LD      (HL),D
0ad7:	F1      		POP     AF
0ad8:	07      		RLCA    
0ad9:	07      		RLCA    
0ada:	16 00   		LD      D,00H
0adc:	5F      		LD      E,A
0add:	21 C0 0B		LD      HL,0BC0H
0ae0:	19      		ADD     HL,DE
0ae1:	5E      		LD      E,(HL)
0ae2:	23      		INC     HL
0ae3:	56      		LD      D,(HL)
0ae4:	23      		INC     HL
0ae5:	23      		INC     HL
0ae6:	7E      		LD      A,(HL)
0ae7:	CD AD 0B		CALL    0BADH
0aea:	E1      		POP     HL
0aeb:	C3 C8 09		JP      09C8H
0aee:	D1      		POP     DE
0aef:	13      		INC     DE
0af0:	E1      		POP     HL
0af1:	73      		LD      (HL),E
0af2:	23      		INC     HL
0af3:	72      		LD      (HL),D
0af4:	C3 C8 09		JP      09C8H
0af7:	E1      		POP     HL
0af8:	E1      		POP     HL
0af9:	3A 57 7D		LD      A,(7D57H)
0afc:	07      		RLCA    
0afd:	07      		RLCA    
0afe:	16 00   		LD      D,00H
0b00:	5F      		LD      E,A
0b01:	21 BE 7C		LD      HL,7CBEH
0b04:	19      		ADD     HL,DE
0b05:	46      		LD      B,(HL)
0b06:	23      		INC     HL
0b07:	4E      		LD      C,(HL)
0b08:	79      		LD      A,C
0b09:	07      		RLCA    
0b0a:	16 00   		LD      D,00H
0b0c:	5F      		LD      E,A
0b0d:	21 D7 7C		LD      HL,7CD7H
0b10:	19      		ADD     HL,DE
0b11:	7E      		LD      A,(HL)
0b12:	FE 00   		CP      00H
0b14:	28 10   		JR      Z,0B26H
0b16:	57      		LD      D,A
0b17:	2B      		DEC     HL
0b18:	5E      		LD      E,(HL)
0b19:	97      		SUB     A
0b1a:	77      		LD      (HL),A
0b1b:	23      		INC     HL
0b1c:	77      		LD      (HL),A
0b1d:	3A 57 7D		LD      A,(7D57H)
0b20:	CD AD 0B		CALL    0BADH
0b23:	C3 C8 09		JP      09C8H
0b26:	3A 57 7D		LD      A,(7D57H)
0b29:	F5      		PUSH    AF
0b2a:	C6 08   		ADD     A,08H
0b2c:	06 00   		LD      B,00H
0b2e:	CD 48 0B		CALL    0B48H
0b31:	F1      		POP     AF
0b32:	07      		RLCA    
0b33:	16 00   		LD      D,00H
0b35:	5F      		LD      E,A
0b36:	21 16 7D		LD      HL,7D16H
0b39:	19      		ADD     HL,DE
0b3a:	72      		LD      (HL),D
0b3b:	23      		INC     HL
0b3c:	72      		LD      (HL),D
0b3d:	07      		RLCA    
0b3e:	5F      		LD      E,A
0b3f:	21 BE 7C		LD      HL,7CBEH
0b42:	19      		ADD     HL,DE
0b43:	36 00   		LD      (HL),00H
0b45:	C3 C8 09		JP      09C8H
0b48:	FE 0E   		CP      0EH
0b4a:	D0      		RET     NC

0b4b:	F5      		PUSH    AF
0b4c:	D3 06   		OUT     (06H),A
0b4e:	78      		LD      A,B
0b4f:	D3 02   		OUT     (02H),A
0b51:	F1      		POP     AF
0b52:	C9      		RET     

0b53:	F5      		PUSH    AF
0b54:	C5      		PUSH    BC
0b55:	D5      		PUSH    DE
0b56:	E5      		PUSH    HL
0b57:	F5      		PUSH    AF
0b58:	3A 8C 7C		LD      A,(7C8CH)
0b5b:	FE 01   		CP      01H
0b5d:	20 0A   		JR      NZ,0B69H
0b5f:	3A B5 7C		LD      A,(7CB5H)
0b62:	FE 01   		CP      01H
0b64:	28 03   		JR      Z,0B69H
0b66:	F1      		POP     AF
0b67:	18 3F   		JR      0BA8H
0b69:	F1      		POP     AF
0b6a:	32 58 7D		LD      (7D58H),A
0b6d:	4F      		LD      C,A
0b6e:	07      		RLCA    
0b6f:	07      		RLCA    
0b70:	16 00   		LD      D,00H
0b72:	5F      		LD      E,A
0b73:	21 C0 0B		LD      HL,0BC0H
0b76:	19      		ADD     HL,DE
0b77:	E5      		PUSH    HL
0b78:	23      		INC     HL
0b79:	23      		INC     HL
0b7a:	46      		LD      B,(HL)
0b7b:	23      		INC     HL
0b7c:	7E      		LD      A,(HL)
0b7d:	C5      		PUSH    BC
0b7e:	E5      		PUSH    HL
0b7f:	07      		RLCA    
0b80:	07      		RLCA    
0b81:	16 00   		LD      D,00H
0b83:	5F      		LD      E,A
0b84:	21 BE 7C		LD      HL,7CBEH
0b87:	19      		ADD     HL,DE
0b88:	7E      		LD      A,(HL)
0b89:	B8      		CP      B
0b8a:	38 07   		JR      C,0B93H
0b8c:	20 09   		JR      NZ,0B97H
0b8e:	23      		INC     HL
0b8f:	7E      		LD      A,(HL)
0b90:	B9      		CP      C
0b91:	28 04   		JR      Z,0B97H
0b93:	3E 01   		LD      A,01H
0b95:	18 01   		JR      0B98H
0b97:	97      		SUB     A
0b98:	E1      		POP     HL
0b99:	C1      		POP     BC
0b9a:	FE 00   		CP      00H
0b9c:	E1      		POP     HL
0b9d:	28 09   		JR      Z,0BA8H
0b9f:	5E      		LD      E,(HL)
0ba0:	23      		INC     HL
0ba1:	56      		LD      D,(HL)
0ba2:	23      		INC     HL
0ba3:	23      		INC     HL
0ba4:	7E      		LD      A,(HL)
0ba5:	CD AD 0B		CALL    0BADH
0ba8:	E1      		POP     HL
0ba9:	D1      		POP     DE
0baa:	C1      		POP     BC
0bab:	F1      		POP     AF
0bac:	C9      		RET     

0bad:	D5      		PUSH    DE
0bae:	07      		RLCA    
0baf:	07      		RLCA    
0bb0:	16 00   		LD      D,00H
0bb2:	5F      		LD      E,A
0bb3:	21 BE 7C		LD      HL,7CBEH
0bb6:	19      		ADD     HL,DE
0bb7:	70      		LD      (HL),B
0bb8:	23      		INC     HL
0bb9:	71      		LD      (HL),C
0bba:	23      		INC     HL
0bbb:	D1      		POP     DE
0bbc:	73      		LD      (HL),E
0bbd:	23      		INC     HL
0bbe:	72      		LD      (HL),D
0bbf:	C9      		RET     

0bc0:	14      		INC     D
0bc1:	0C      		INC     C
0bc2:	02      		LD      (BC),A
0bc3:	00      		NOP     
0bc4:	22 0C 02		LD      (020CH),HL
0bc7:	00      		NOP     
0bc8:	30 0C   		JR      NC,0BD6H
0bca:	01 01 4C		LD      BC,4C01H
0bcd:	0C      		INC     C
0bce:	03      		INC     BC
0bcf:	01 5C 0C		LD      BC,0C5CH
0bd2:	02      		LD      (BC),A
0bd3:	00      		NOP     
0bd4:	C9      		RET     

0bd5:	0D      		DEC     C
0bd6:	01 00 AF		LD      BC,0AF00H
0bd9:	0D      		DEC     C
0bda:	01 00 73		LD      BC,7300H
0bdd:	0C      		INC     C
0bde:	02      		LD      (BC),A
0bdf:	00      		NOP     
0be0:	87      		ADD     A,A
0be1:	0C      		INC     C
0be2:	02      		LD      (BC),A
0be3:	00      		NOP     
0be4:	9B      		SBC     A,E
0be5:	0C      		INC     C
0be6:	02      		LD      (BC),A
0be7:	00      		NOP     
0be8:	3E 0C   		LD      A,0CH
0bea:	02      		LD      (BC),A
0beb:	00      		NOP     
0bec:	A9      		XOR     C
0bed:	0C      		INC     C
0bee:	01 00 C1		LD      BC,0C100H
0bf1:	0C      		INC     C
0bf2:	04      		INC     B
0bf3:	00      		NOP     
0bf4:	D9      		EXX     
0bf5:	0C      		INC     C
0bf6:	04      		INC     B
0bf7:	00      		NOP     
0bf8:	F1      		POP     AF
0bf9:	0C      		INC     C
0bfa:	03      		INC     BC
0bfb:	01 45 0D		LD      BC,0D45H
0bfe:	03      		INC     BC
0bff:	00      		NOP     
0c00:	2E 0D   		LD      L,0DH
0c02:	01 00 5E		LD      BC,5E00H
0c05:	0D      		DEC     C
0c06:	04      		INC     B
0c07:	00      		NOP     
0c08:	7F      		LD      A,A
0c09:	0D      		DEC     C
0c0a:	01 00 97		LD      BC,9700H
0c0d:	0D      		DEC     C
0c0e:	04      		INC     B
0c0f:	01 16 0D		LD      BC,0D16H
0c12:	03      		INC     BC
0c13:	01 08 07		LD      BC,0708H
0c16:	00      		NOP     
0c17:	BF      		CP      A
0c18:	01 00 40		LD      BC,4000H
0c1b:	00      		NOP     
0c1c:	FF      		RST     38H
0c1d:	60      		LD      H,B
0c1e:	05      		DEC     B
0c1f:	1A      		LD      A,(DE)
0c20:	0C      		INC     C
0c21:	E0      		RET     PO

0c22:	08      		EX      AF,AF'
0c23:	07      		RLCA    
0c24:	00      		NOP     
0c25:	05      		DEC     B
0c26:	01 00 40		LD      BC,4000H
0c29:	00      		NOP     
0c2a:	01 60 BF		LD      BC,0BF60H
0c2d:	28 0C   		JR      Z,0C3BH
0c2f:	E0      		RET     PO

0c30:	09      		ADD     HL,BC
0c31:	0F      		RRCA    
0c32:	02      		LD      (BC),A
0c33:	10 03   		DJNZ    0C38H
0c35:	00      		NOP     
0c36:	49      		LD      C,C
0c37:	80      		ADD     A,B
0c38:	FF      		RST     38H
0c39:	69      		LD      L,C
0c3a:	00      		NOP     
0c3b:	36 0C   		LD      (HL),0CH
0c3d:	E0      		RET     PO

0c3e:	08      		EX      AF,AF'
0c3f:	09      		ADD     HL,BC
0c40:	00      		NOP     
0c41:	18 01   		JR      0C44H
0c43:	00      		NOP     
0c44:	48      		LD      C,B
0c45:	80      		ADD     A,B
0c46:	FF      		RST     38H
0c47:	68      		LD      L,B
0c48:	00      		NOP     
0c49:	44      		LD      B,H
0c4a:	0C      		INC     C
0c4b:	E0      		RET     PO

0c4c:	09      		ADD     HL,BC
0c4d:	07      		RLCA    
0c4e:	02      		LD      (BC),A
0c4f:	0F      		RRCA    
0c50:	03      		INC     BC
0c51:	00      		NOP     
0c52:	11 06 51		LD      DE,5106H
0c55:	00      		NOP     
0c56:	FF      		RST     38H
0c57:	71      		LD      (HL),C
0c58:	00      		NOP     
0c59:	54      		LD      D,H
0c5a:	0C      		INC     C
0c5b:	E0      		RET     PO

0c5c:	08      		EX      AF,AF'
0c5d:	07      		RLCA    
0c5e:	10 03   		DJNZ    0C63H
0c60:	01 00 00		LD      BC,0000H
0c63:	28 40   		JR      Z,0CA5H
0c65:	00      		NOP     
0c66:	FB      		EI      
0c67:	60      		LD      H,B
0c68:	0A      		LD      A,(BC)
0c69:	64      		LD      H,H
0c6a:	0C      		INC     C
0c6b:	50      		LD      D,B
0c6c:	00      		NOP     
0c6d:	FF      		RST     38H
0c6e:	70      		LD      (HL),B
0c6f:	00      		NOP     
0c70:	62      		LD      H,D
0c71:	0C      		INC     C
0c72:	E0      		RET     PO

0c73:	08      		EX      AF,AF'
0c74:	10 00   		DJNZ    0C76H
0c76:	1F      		RRA     
0c77:	01 00 0D		LD      BC,0D00H
0c7a:	0E 0B   		LD      C,0BH
0c7c:	EA 0C 00		JP      PE,000CH
0c7f:	40      		LD      B,B
0c80:	00      		NOP     
0c81:	FE 60   		CP      60H
0c83:	05      		DEC     B
0c84:	7F      		LD      A,A
0c85:	0C      		INC     C
0c86:	E0      		RET     PO

0c87:	08      		EX      AF,AF'
0c88:	10 00   		DJNZ    0C8AH
0c8a:	05      		DEC     B
0c8b:	01 00 0D		LD      BC,0D00H
0c8e:	0E 0B   		LD      C,0BH
0c90:	EA 0C 00		JP      PE,000CH
0c93:	40      		LD      B,B
0c94:	00      		NOP     
0c95:	02      		LD      (BC),A
0c96:	60      		LD      H,B
0c97:	1F      		RRA     
0c98:	93      		SUB     E
0c99:	0C      		INC     C
0c9a:	E0      		RET     PO

0c9b:	08      		EX      AF,AF'
0c9c:	08      		EX      AF,AF'
0c9d:	00      		NOP     
0c9e:	18 01   		JR      0CA1H
0ca0:	02      		LD      (BC),A
0ca1:	48      		LD      C,B
0ca2:	80      		ADD     A,B
0ca3:	FF      		RST     38H
0ca4:	68      		LD      L,B
0ca5:	00      		NOP     
0ca6:	A1      		AND     C
0ca7:	0C      		INC     C
0ca8:	E0      		RET     PO

0ca9:	08      		EX      AF,AF'
0caa:	0A      		LD      A,(BC)
0cab:	20 05   		JR      NZ,0CB2H
0cad:	0E 16   		LD      C,16H
0caf:	1F      		RRA     
0cb0:	13      		INC     DE
0cb1:	00      		NOP     
0cb2:	93      		SUB     E
0cb3:	02      		LD      (BC),A
0cb4:	00      		NOP     
0cb5:	73      		LD      (HL),E
0cb6:	00      		NOP     
0cb7:	B2      		OR      D
0cb8:	0C      		INC     C
0cb9:	56      		LD      D,(HL)
0cba:	00      		NOP     
0cbb:	FF      		RST     38H
0cbc:	76      		HALT    
0cbd:	00      		NOP     
0cbe:	B2      		OR      D
0cbf:	0C      		INC     C
0cc0:	E0      		RET     PO

0cc1:	08      		EX      AF,AF'
0cc2:	0A      		LD      A,(BC)
0cc3:	20 C2   		JR      NZ,0C87H
0cc5:	0E 16   		LD      C,16H
0cc7:	15      		DEC     D
0cc8:	13      		INC     DE
0cc9:	00      		NOP     
0cca:	93      		SUB     E
0ccb:	02      		LD      (BC),A
0ccc:	00      		NOP     
0ccd:	73      		LD      (HL),E
0cce:	00      		NOP     
0ccf:	CA 0C 56		JP      Z,560CH
0cd2:	00      		NOP     
0cd3:	FF      		RST     38H
0cd4:	76      		HALT    
0cd5:	00      		NOP     
0cd6:	CA 0C E0		JP      Z,0E00CH
0cd9:	08      		EX      AF,AF'
0cda:	0A      		LD      A,(BC)
0cdb:	20 2E   		JR      NZ,0D0BH
0cdd:	0F      		RRCA    
0cde:	16 3A   		LD      D,3AH
0ce0:	13      		INC     DE
0ce1:	00      		NOP     
0ce2:	93      		SUB     E
0ce3:	02      		LD      (BC),A
0ce4:	00      		NOP     
0ce5:	73      		LD      (HL),E
0ce6:	00      		NOP     
0ce7:	E2 0C 56		JP      PO,560CH
0cea:	00      		NOP     
0ceb:	FF      		RST     38H
0cec:	76      		HALT    
0ced:	00      		NOP     
0cee:	E2 0C E0		JP      PO,0E00CH
0cf1:	02      		LD      (BC),A
0cf2:	10 03   		DJNZ    0CF7H
0cf4:	01 11 04		LD      BC,0411H
0cf7:	09      		ADD     HL,BC
0cf8:	10 0B   		DJNZ    0D05H
0cfa:	1F      		RRA     
0cfb:	0C      		INC     C
0cfc:	00      		NOP     
0cfd:	0D      		DEC     C
0cfe:	08      		EX      AF,AF'
0cff:	14      		INC     D
0d00:	0F      		RRCA    
0d01:	42      		LD      B,D
0d02:	00      		NOP     
0d03:	04      		INC     B
0d04:	54      		LD      D,H
0d05:	00      		NOP     
0d06:	FF      		RST     38H
0d07:	74      		LD      (HL),H
0d08:	00      		NOP     
0d09:	01 0D 4C		LD      BC,4C0DH
0d0c:	00      		NOP     
0d0d:	01 51 00		LD      BC,0051H
0d10:	FF      		RST     38H
0d11:	71      		LD      (HL),C
0d12:	00      		NOP     
0d13:	FF      		RST     38H
0d14:	0C      		INC     C
0d15:	E0      		RET     PO

0d16:	09      		ADD     HL,BC
0d17:	07      		RLCA    
0d18:	21 E1 0D		LD      HL,0DE1H
0d1b:	17      		RLA     
0d1c:	0C      		INC     C
0d1d:	14      		INC     D
0d1e:	00      		NOP     
0d1f:	94      		SUB     H
0d20:	22 02 74		LD      (7402H),HL
0d23:	00      		NOP     
0d24:	1F      		RRA     
0d25:	0D      		DEC     C
0d26:	57      		LD      D,A
0d27:	00      		NOP     
0d28:	FF      		RST     38H
0d29:	77      		LD      (HL),A
0d2a:	00      		NOP     
0d2b:	1F      		RRA     
0d2c:	0D      		DEC     C
0d2d:	E0      		RET     PO

0d2e:	00      		NOP     
0d2f:	FF      		RST     38H
0d30:	01 03 08		LD      BC,0803H
0d33:	03      		INC     BC
0d34:	10 05   		DJNZ    0D3BH
0d36:	50      		LD      D,B
0d37:	00      		NOP     
0d38:	FF      		RST     38H
0d39:	70      		LD      (HL),B
0d3a:	00      		NOP     
0d3b:	36 0D   		LD      (HL),0DH
0d3d:	48      		LD      C,B
0d3e:	00      		NOP     
0d3f:	01 68 0A		LD      BC,0A68H
0d42:	3D      		DEC     A
0d43:	0D      		DEC     C
0d44:	E0      		RET     PO

0d45:	00      		NOP     
0d46:	1C      		INC     E
0d47:	01 00 08		LD      BC,0800H
0d4a:	10 10   		DJNZ    0D5CH
0d4c:	0C      		INC     C
0d4d:	0B      		DEC     BC
0d4e:	1F      		RRA     
0d4f:	0C      		INC     C
0d50:	00      		NOP     
0d51:	0D      		DEC     C
0d52:	0E 50   		LD      C,50H
0d54:	00      		NOP     
0d55:	FF      		RST     38H
0d56:	40      		LD      B,B
0d57:	00      		NOP     
0d58:	68      		LD      L,B
0d59:	70      		LD      (HL),B
0d5a:	00      		NOP     
0d5b:	53      		LD      D,E
0d5c:	0D      		DEC     C
0d5d:	E0      		RET     PO

0d5e:	01 00 10		LD      BC,1000H
0d61:	05      		DEC     B
0d62:	08      		EX      AF,AF'
0d63:	0B      		DEC     BC
0d64:	00      		NOP     
0d65:	F0      		RET     P

0d66:	40      		LD      B,B
0d67:	00      		NOP     
0d68:	E0      		RET     PO

0d69:	60      		LD      H,B
0d6a:	50      		LD      D,B
0d6b:	66      		LD      H,(HL)
0d6c:	0D      		DEC     C
0d6d:	40      		LD      B,B
0d6e:	00      		NOP     
0d6f:	10 60   		DJNZ    0DD1H
0d71:	A0      		AND     B
0d72:	6D      		LD      L,L
0d73:	0D      		DEC     C
0d74:	41      		LD      B,C
0d75:	00      		NOP     
0d76:	01 50 00		LD      BC,0050H
0d79:	FF      		RST     38H
0d7a:	70      		LD      (HL),B
0d7b:	00      		NOP     
0d7c:	64      		LD      H,H
0d7d:	0D      		DEC     C
0d7e:	E0      		RET     PO

0d7f:	08      		EX      AF,AF'
0d80:	0A      		LD      A,(BC)
0d81:	20 01   		JR      NZ,0D84H
0d83:	0F      		RRCA    
0d84:	16 0F   		LD      D,0FH
0d86:	13      		INC     DE
0d87:	00      		NOP     
0d88:	93      		SUB     E
0d89:	02      		LD      (BC),A
0d8a:	00      		NOP     
0d8b:	73      		LD      (HL),E
0d8c:	00      		NOP     
0d8d:	88      		ADC     A,B
0d8e:	0D      		DEC     C
0d8f:	56      		LD      D,(HL)
0d90:	00      		NOP     
0d91:	FF      		RST     38H
0d92:	76      		HALT    
0d93:	00      		NOP     
0d94:	88      		ADC     A,B
0d95:	0D      		DEC     C
0d96:	E0      		RET     PO

0d97:	09      		ADD     HL,BC
0d98:	0A      		LD      A,(BC)
0d99:	21 62 0E		LD      HL,0E62H
0d9c:	17      		RLA     
0d9d:	20 14   		JR      NZ,0DB3H
0d9f:	00      		NOP     
0da0:	94      		SUB     H
0da1:	22 02 74		LD      (7402H),HL
0da4:	00      		NOP     
0da5:	A0      		AND     B
0da6:	0D      		DEC     C
0da7:	57      		LD      D,A
0da8:	00      		NOP     
0da9:	FF      		RST     38H
0daa:	77      		LD      (HL),A
0dab:	00      		NOP     
0dac:	A0      		AND     B
0dad:	0D      		DEC     C
0dae:	E0      		RET     PO

0daf:	08      		EX      AF,AF'
0db0:	0A      		LD      A,(BC)
0db1:	10 04   		DJNZ    0DB7H
0db3:	01 02 00		LD      BC,0002H
0db6:	0A      		LD      A,(BC)
0db7:	40      		LD      B,B
0db8:	00      		NOP     
0db9:	05      		DEC     B
0dba:	41      		LD      B,C
0dbb:	00      		NOP     
0dbc:	03      		INC     BC
0dbd:	60      		LD      H,B
0dbe:	5A      		LD      E,D
0dbf:	B7      		OR      A
0dc0:	0D      		DEC     C
0dc1:	50      		LD      D,B
0dc2:	00      		NOP     
0dc3:	FF      		RST     38H
0dc4:	70      		LD      (HL),B
0dc5:	00      		NOP     
0dc6:	B5      		OR      L
0dc7:	0D      		DEC     C
0dc8:	E0      		RET     PO

0dc9:	08      		EX      AF,AF'
0dca:	07      		RLCA    
0dcb:	20 DC   		JR      NZ,0DA9H
0dcd:	0F      		RRCA    
0dce:	16 48   		LD      D,48H
0dd0:	13      		INC     DE
0dd1:	00      		NOP     
0dd2:	93      		SUB     E
0dd3:	02      		LD      (BC),A
0dd4:	00      		NOP     
0dd5:	73      		LD      (HL),E
0dd6:	00      		NOP     
0dd7:	D2 0D 56		JP      NC,560DH
0dda:	00      		NOP     
0ddb:	FF      		RST     38H
0ddc:	76      		HALT    
0ddd:	00      		NOP     
0dde:	D2 0D E0		JP      NC,0E00DH
0de1:	02      		LD      (BC),A
0de2:	E8      		RET     PE

0de3:	01 01 00		LD      BC,0001H
0de6:	00      		NOP     
0de7:	02      		LD      (BC),A
0de8:	83      		ADD     A,E
0de9:	01 01 00		LD      BC,0001H
0dec:	00      		NOP     
0ded:	02      		LD      (BC),A
0dee:	45      		LD      B,L
0def:	01 01 00		LD      BC,0001H
0df2:	00      		NOP     
0df3:	06 7A   		LD      B,7AH
0df5:	00      		NOP     
0df6:	06 00   		LD      B,00H
0df8:	00      		NOP     
0df9:	04      		INC     B
0dfa:	91      		SUB     C
0dfb:	00      		NOP     
0dfc:	02      		LD      (BC),A
0dfd:	00      		NOP     
0dfe:	00      		NOP     
0dff:	0A      		LD      A,(BC)
0e00:	7A      		LD      A,D
0e01:	00      		NOP     
0e02:	12      		LD      (DE),A
0e03:	00      		NOP     
0e04:	00      		NOP     
0e05:	03      		INC     BC
0e06:	23      		INC     HL
0e07:	01 01 00		LD      BC,0001H
0e0a:	00      		NOP     
0e0b:	03      		INC     BC
0e0c:	00      		NOP     
0e0d:	01 01 00		LD      BC,0001H
0e10:	00      		NOP     
0e11:	05      		DEC     B
0e12:	3C      		INC     A
0e13:	00      		NOP     
0e14:	01 00 00		LD      BC,0000H
0e17:	05      		DEC     B
0e18:	78      		LD      A,B
0e19:	00      		NOP     
0e1a:	01 00 00		LD      BC,0000H
0e1d:	05      		DEC     B
0e1e:	55      		LD      D,L
0e1f:	00      		NOP     
0e20:	01 00 00		LD      BC,0000H
0e23:	05      		DEC     B
0e24:	C8      		RET     Z

0e25:	00      		NOP     
0e26:	01 00 00		LD      BC,0000H
0e29:	03      		INC     BC
0e2a:	4B      		LD      C,E
0e2b:	01 01 00		LD      BC,0001H
0e2e:	00      		NOP     
0e2f:	03      		INC     BC
0e30:	78      		LD      A,B
0e31:	00      		NOP     
0e32:	01 00 00		LD      BC,0000H
0e35:	03      		INC     BC
0e36:	55      		LD      D,L
0e37:	00      		NOP     
0e38:	01 00 00		LD      BC,0000H
0e3b:	02      		LD      (BC),A
0e3c:	C3 00 01		JP      0100H
0e3f:	00      		NOP     
0e40:	00      		NOP     
0e41:	02      		LD      (BC),A
0e42:	41      		LD      B,C
0e43:	00      		NOP     
0e44:	02      		LD      (BC),A
0e45:	00      		NOP     
0e46:	00      		NOP     
0e47:	03      		INC     BC
0e48:	3C      		INC     A
0e49:	00      		NOP     
0e4a:	02      		LD      (BC),A
0e4b:	00      		NOP     
0e4c:	00      		NOP     
0e4d:	02      		LD      (BC),A
0e4e:	37      		SCF     
0e4f:	00      		NOP     
0e50:	02      		LD      (BC),A
0e51:	00      		NOP     
0e52:	00      		NOP     
0e53:	02      		LD      (BC),A
0e54:	32 00 02		LD      (0200H),A
0e57:	00      		NOP     
0e58:	00      		NOP     
0e59:	02      		LD      (BC),A
0e5a:	2F      		CPL     
0e5b:	00      		NOP     
0e5c:	02      		LD      (BC),A
0e5d:	00      		NOP     
0e5e:	00      		NOP     
0e5f:	03      		INC     BC
0e60:	2C      		INC     L
0e61:	00      		NOP     
0e62:	04      		INC     B
0e63:	81      		ADD     A,C
0e64:	00      		NOP     
0e65:	03      		INC     BC
0e66:	00      		NOP     
0e67:	00      		NOP     
0e68:	04      		INC     B
0e69:	34      		INC     (HL)
0e6a:	01 03 00		LD      BC,0003H
0e6d:	00      		NOP     
0e6e:	02      		LD      (BC),A
0e6f:	B0      		OR      B
0e70:	02      		LD      (BC),A
0e71:	02      		LD      (BC),A
0e72:	0E 03   		LD      C,03H
0e74:	01 00 00		LD      BC,0000H
0e77:	02      		LD      (BC),A
0e78:	A1      		AND     C
0e79:	03      		INC     BC
0e7a:	01 00 00		LD      BC,0000H
0e7d:	04      		INC     B
0e7e:	A9      		XOR     C
0e7f:	03      		INC     BC
0e80:	02      		LD      (BC),A
0e81:	00      		NOP     
0e82:	00      		NOP     
0e83:	02      		LD      (BC),A
0e84:	00      		NOP     
0e85:	01 02 00		LD      BC,0002H
0e88:	00      		NOP     
0e89:	02      		LD      (BC),A
0e8a:	F3      		DI      
0e8b:	02      		LD      (BC),A
0e8c:	03      		INC     BC
0e8d:	00      		NOP     
0e8e:	00      		NOP     
0e8f:	02      		LD      (BC),A
0e90:	CD 00 03		CALL    0300H
0e93:	00      		NOP     
0e94:	00      		NOP     
0e95:	01 B7 00		LD      BC,00B7H
0e98:	03      		INC     BC
0e99:	00      		NOP     
0e9a:	00      		NOP     
0e9b:	05      		DEC     B
0e9c:	6A      		LD      L,D
0e9d:	00      		NOP     
0e9e:	02      		LD      (BC),A
0e9f:	00      		NOP     
0ea0:	00      		NOP     
0ea1:	03      		INC     BC
0ea2:	93      		SUB     E
0ea3:	00      		NOP     
0ea4:	03      		INC     BC
0ea5:	00      		NOP     
0ea6:	00      		NOP     
0ea7:	03      		INC     BC
0ea8:	52      		LD      D,D
0ea9:	00      		NOP     
0eaa:	02      		LD      (BC),A
0eab:	00      		NOP     
0eac:	00      		NOP     
0ead:	03      		INC     BC
0eae:	32 00 02		LD      (0200H),A
0eb1:	00      		NOP     
0eb2:	00      		NOP     
0eb3:	03      		INC     BC
0eb4:	2B      		DEC     HL
0eb5:	00      		NOP     
0eb6:	02      		LD      (BC),A
0eb7:	00      		NOP     
0eb8:	00      		NOP     
0eb9:	03      		INC     BC
0eba:	32 00 02		LD      (0200H),A
0ebd:	00      		NOP     
0ebe:	00      		NOP     
0ebf:	08      		EX      AF,AF'
0ec0:	64      		LD      H,H
0ec1:	00      		NOP     
0ec2:	07      		RLCA    
0ec3:	7F      		LD      A,A
0ec4:	01 01 00		LD      BC,0001H
0ec7:	00      		NOP     
0ec8:	02      		LD      (BC),A
0ec9:	32 02 02		LD      (0202H),A
0ecc:	64      		LD      H,H
0ecd:	02      		LD      (BC),A
0ece:	02      		LD      (BC),A
0ecf:	96      		SUB     (HL)
0ed0:	02      		LD      (BC),A
0ed1:	01 00 00		LD      BC,0000H
0ed4:	01 C8 06		LD      BC,06C8H
0ed7:	01 00 00		LD      BC,0000H
0eda:	01 C8 06		LD      BC,06C8H
0edd:	01 00 00		LD      BC,0000H
0ee0:	01 C8 06		LD      BC,06C8H
0ee3:	01 00 00		LD      BC,0000H
0ee6:	01 C8 06		LD      BC,06C8H
0ee9:	01 00 00		LD      BC,0000H
0eec:	01 C8 06		LD      BC,06C8H
0eef:	01 00 00		LD      BC,0000H
0ef2:	01 C8 06		LD      BC,06C8H
0ef5:	01 00 00		LD      BC,0000H
0ef8:	01 C8 06		LD      BC,06C8H
0efb:	01 00 00		LD      BC,0000H
0efe:	03      		INC     BC
0eff:	00      		NOP     
0f00:	05      		DEC     B
0f01:	03      		INC     BC
0f02:	F0      		RET     P

0f03:	00      		NOP     
0f04:	01 00 00		LD      BC,0000H
0f07:	02      		LD      (BC),A
0f08:	1E 01   		LD      E,01H
0f0a:	01 00 00		LD      BC,0000H
0f0d:	02      		LD      (BC),A
0f0e:	1E 02   		LD      E,02H
0f10:	01 00 00		LD      BC,0000H
0f13:	02      		LD      (BC),A
0f14:	1E 03   		LD      E,03H
0f16:	01 00 00		LD      BC,0000H
0f19:	02      		LD      (BC),A
0f1a:	1E 04   		LD      E,04H
0f1c:	01 00 00		LD      BC,0000H
0f1f:	02      		LD      (BC),A
0f20:	1E 05   		LD      E,05H
0f22:	01 00 00		LD      BC,0000H
0f25:	02      		LD      (BC),A
0f26:	1E 06   		LD      E,06H
0f28:	01 00 00		LD      BC,0000H
0f2b:	02      		LD      (BC),A
0f2c:	1E 07   		LD      E,07H
0f2e:	01 96 03		LD      BC,0396H
0f31:	04      		INC     B
0f32:	00      		NOP     
0f33:	00      		NOP     
0f34:	01 C8 03		LD      BC,03C8H
0f37:	04      		INC     B
0f38:	00      		NOP     
0f39:	00      		NOP     
0f3a:	01 64 03		LD      BC,0364H
0f3d:	04      		INC     B
0f3e:	00      		NOP     
0f3f:	00      		NOP     
0f40:	01 96 02		LD      BC,0296H
0f43:	04      		INC     B
0f44:	00      		NOP     
0f45:	00      		NOP     
0f46:	01 C8 02		LD      BC,02C8H
0f49:	04      		INC     B
0f4a:	00      		NOP     
0f4b:	00      		NOP     
0f4c:	01 64 02		LD      BC,0264H
0f4f:	04      		INC     B
0f50:	00      		NOP     
0f51:	00      		NOP     
0f52:	01 96 01		LD      BC,0196H
0f55:	04      		INC     B
0f56:	00      		NOP     
0f57:	00      		NOP     
0f58:	01 C8 01		LD      BC,01C8H
0f5b:	04      		INC     B
0f5c:	00      		NOP     
0f5d:	00      		NOP     
0f5e:	01 64 01		LD      BC,0164H
0f61:	04      		INC     B
0f62:	00      		NOP     
0f63:	00      		NOP     
0f64:	01 96 00		LD      BC,0096H
0f67:	04      		INC     B
0f68:	00      		NOP     
0f69:	00      		NOP     
0f6a:	01 C8 00		LD      BC,00C8H
0f6d:	04      		INC     B
0f6e:	00      		NOP     
0f6f:	00      		NOP     
0f70:	01 64 00		LD      BC,0064H
0f73:	04      		INC     B
0f74:	00      		NOP     
0f75:	00      		NOP     
0f76:	01 78 01		LD      BC,0178H
0f79:	03      		INC     BC
0f7a:	00      		NOP     
0f7b:	00      		NOP     
0f7c:	01 A0 01		LD      BC,01A0H
0f7f:	03      		INC     BC
0f80:	00      		NOP     
0f81:	00      		NOP     
0f82:	01 4B 01		LD      BC,014BH
0f85:	03      		INC     BC
0f86:	00      		NOP     
0f87:	00      		NOP     
0f88:	01 78 00		LD      BC,0078H
0f8b:	03      		INC     BC
0f8c:	00      		NOP     
0f8d:	00      		NOP     
0f8e:	01 A0 00		LD      BC,00A0H
0f91:	03      		INC     BC
0f92:	00      		NOP     
0f93:	00      		NOP     
0f94:	01 4B 00		LD      BC,004BH
0f97:	01 5A 01		LD      BC,015AH
0f9a:	02      		LD      (BC),A
0f9b:	00      		NOP     
0f9c:	00      		NOP     
0f9d:	01 78 01		LD      BC,0178H
0fa0:	02      		LD      (BC),A
0fa1:	00      		NOP     
0fa2:	00      		NOP     
0fa3:	01 32 01		LD      BC,0132H
0fa6:	02      		LD      (BC),A
0fa7:	00      		NOP     
0fa8:	00      		NOP     
0fa9:	01 5A 00		LD      BC,005AH
0fac:	02      		LD      (BC),A
0fad:	00      		NOP     
0fae:	00      		NOP     
0faf:	01 78 00		LD      BC,0078H
0fb2:	02      		LD      (BC),A
0fb3:	00      		NOP     
0fb4:	00      		NOP     
0fb5:	01 32 00		LD      BC,0032H
0fb8:	02      		LD      (BC),A
0fb9:	00      		NOP     
0fba:	00      		NOP     
0fbb:	01 3C 01		LD      BC,013CH
0fbe:	01 00 00		LD      BC,0000H
0fc1:	01 50 01		LD      BC,0150H
0fc4:	01 00 00		LD      BC,0000H
0fc7:	01 1E 01		LD      BC,011EH
0fca:	01 00 00		LD      BC,0000H
0fcd:	01 3C 00		LD      BC,003CH
0fd0:	01 00 00		LD      BC,0000H
0fd3:	01 50 00		LD      BC,0050H
0fd6:	01 00 00		LD      BC,0000H
0fd9:	01 1E 00		LD      BC,001EH
0fdc:	03      		INC     BC
0fdd:	6D      		LD      L,L
0fde:	01 03 59		LD      BC,5903H
0fe1:	01 03 45		LD      BC,4503H
0fe4:	01 03 33		LD      BC,3303H
0fe7:	01 03 22		LD      BC,2203H
0fea:	01 03 12		LD      BC,1203H
0fed:	01 03 02		LD      BC,0203H
0ff0:	01 03 F4		LD      BC,0F403H
0ff3:	00      		NOP     
0ff4:	03      		INC     BC
0ff5:	E6 00   		AND     00H
0ff7:	03      		INC     BC
0ff8:	D9      		EXX     
0ff9:	00      		NOP     
0ffa:	03      		INC     BC
0ffb:	CD 00 03		CALL    0300H
0ffe:	C2 00 00		JP      NZ,0000H
1000:	03      		INC     BC
1001:	B7      		OR      A
1002:	00      		NOP     
1003:	03      		INC     BC
1004:	AC      		XOR     H
1005:	00      		NOP     
1006:	03      		INC     BC
1007:	A3      		AND     E
1008:	00      		NOP     
1009:	03      		INC     BC
100a:	9A      		SBC     A,D
100b:	00      		NOP     
100c:	03      		INC     BC
100d:	91      		SUB     C
100e:	00      		NOP     
100f:	03      		INC     BC
1010:	89      		ADC     A,C
1011:	00      		NOP     
1012:	03      		INC     BC
1013:	A3      		AND     E
1014:	00      		NOP     
1015:	03      		INC     BC
1016:	9A      		SBC     A,D
1017:	00      		NOP     
1018:	03      		INC     BC
1019:	91      		SUB     C
101a:	00      		NOP     
101b:	03      		INC     BC
101c:	AC      		XOR     H
101d:	00      		NOP     
101e:	03      		INC     BC
101f:	A3      		AND     E
1020:	00      		NOP     
1021:	03      		INC     BC
1022:	9A      		SBC     A,D
1023:	00      		NOP     
1024:	03      		INC     BC
1025:	B7      		OR      A
1026:	00      		NOP     
1027:	03      		INC     BC
1028:	AC      		XOR     H
1029:	00      		NOP     
102a:	03      		INC     BC
102b:	A3      		AND     E
102c:	00      		NOP     
102d:	03      		INC     BC
102e:	C2 00 03		JP      NZ,0300H
1031:	B7      		OR      A
1032:	00      		NOP     
1033:	03      		INC     BC
1034:	AC      		XOR     H
1035:	00      		NOP     
1036:	03      		INC     BC
1037:	A3      		AND     E
1038:	00      		NOP     
1039:	03      		INC     BC
103a:	9A      		SBC     A,D
103b:	00      		NOP     
103c:	03      		INC     BC
103d:	91      		SUB     C
103e:	00      		NOP     
103f:	03      		INC     BC
1040:	89      		ADC     A,C
1041:	00      		NOP     
1042:	03      		INC     BC
1043:	81      		ADD     A,C
1044:	00      		NOP     
1045:	03      		INC     BC
1046:	7A      		LD      A,D
1047:	00      		NOP     
1048:	03      		INC     BC
1049:	73      		LD      (HL),E
104a:	00      		NOP     
104b:	03      		INC     BC
104c:	6D      		LD      L,L
104d:	00      		NOP     
104e:	03      		INC     BC
104f:	67      		LD      H,A
1050:	00      		NOP     
1051:	03      		INC     BC
1052:	61      		LD      H,C
1053:	00      		NOP     
1054:	03      		INC     BC
1055:	5B      		LD      E,E
1056:	00      		NOP     
1057:	03      		INC     BC
1058:	56      		LD      D,(HL)
1059:	00      		NOP     
105a:	03      		INC     BC
105b:	51      		LD      D,C
105c:	00      		NOP     
105d:	03      		INC     BC
105e:	4D      		LD      C,L
105f:	00      		NOP     
1060:	03      		INC     BC
1061:	48      		LD      C,B
1062:	00      		NOP     
1063:	03      		INC     BC
1064:	56      		LD      D,(HL)
1065:	00      		NOP     
1066:	03      		INC     BC
1067:	51      		LD      D,C
1068:	00      		NOP     
1069:	03      		INC     BC
106a:	4D      		LD      C,L
106b:	00      		NOP     
106c:	03      		INC     BC
106d:	5B      		LD      E,E
106e:	00      		NOP     
106f:	03      		INC     BC
1070:	56      		LD      D,(HL)
1071:	00      		NOP     
1072:	03      		INC     BC
1073:	51      		LD      D,C
1074:	00      		NOP     
1075:	03      		INC     BC
1076:	61      		LD      H,C
1077:	00      		NOP     
1078:	03      		INC     BC
1079:	5B      		LD      E,E
107a:	00      		NOP     
107b:	03      		INC     BC
107c:	56      		LD      D,(HL)
107d:	00      		NOP     
107e:	03      		INC     BC
107f:	67      		LD      H,A
1080:	00      		NOP     
1081:	03      		INC     BC
1082:	61      		LD      H,C
1083:	00      		NOP     
1084:	03      		INC     BC
1085:	5B      		LD      E,E
1086:	00      		NOP     
1087:	03      		INC     BC
1088:	56      		LD      D,(HL)
1089:	00      		NOP     
108a:	03      		INC     BC
108b:	51      		LD      D,C
108c:	00      		NOP     
108d:	03      		INC     BC
108e:	4D      		LD      C,L
108f:	00      		NOP     
1090:	03      		INC     BC
1091:	48      		LD      C,B
1092:	00      		NOP     
1093:	03      		INC     BC
1094:	44      		LD      B,H
1095:	00      		NOP     
1096:	03      		INC     BC
1097:	41      		LD      B,C
1098:	00      		NOP     
1099:	03      		INC     BC
109a:	3D      		DEC     A
109b:	00      		NOP     
109c:	03      		INC     BC
109d:	3A 00 03		LD      A,(0300H)
10a0:	36 00   		LD      (HL),00H
10a2:	03      		INC     BC
10a3:	33      		INC     SP
10a4:	00      		NOP     
10a5:	03      		INC     BC
10a6:	30 00   		JR      NC,00A8H
10a8:	03      		INC     BC
10a9:	2E 00   		LD      L,00H
10ab:	03      		INC     BC
10ac:	2B      		DEC     HL
10ad:	00      		NOP     
10ae:	03      		INC     BC
10af:	29      		ADD     HL,HL
10b0:	00      		NOP     
10b1:	03      		INC     BC
10b2:	27      		DAA     
10b3:	00      		NOP     
10b4:	F5      		PUSH    AF
10b5:	E6 F0   		AND     0F0H
10b7:	0F      		RRCA    
10b8:	0F      		RRCA    
10b9:	0F      		RRCA    
10ba:	0F      		RRCA    
10bb:	47      		LD      B,A
10bc:	F1      		POP     AF
10bd:	E6 0F   		AND     0FH
10bf:	4F      		LD      C,A
10c0:	C9      		RET     

10c1:	E5      		PUSH    HL
10c2:	68      		LD      L,B
10c3:	CD CC 10		CALL    10CCH
10c6:	69      		LD      L,C
10c7:	CD CC 10		CALL    10CCH
10ca:	E1      		POP     HL
10cb:	C9      		RET     

10cc:	F5      		PUSH    AF
10cd:	C5      		PUSH    BC
10ce:	D5      		PUSH    DE
10cf:	45      		LD      B,L
10d0:	26 00   		LD      H,00H
10d2:	CD 45 11		CALL    1145H
10d5:	11 D1 14		LD      DE,14D1H
10d8:	19      		ADD     HL,DE
10d9:	3A 80 7C		LD      A,(7C80H)
10dc:	FE 00   		CP      00H
10de:	28 0E   		JR      Z,00EEH
10e0:	78      		LD      A,B
10e1:	FE 00   		CP      00H
10e3:	28 06   		JR      Z,00EBH
10e5:	97      		SUB     A
10e6:	32 80 7C		LD      (7C80H),A
10e9:	18 03   		JR      00EEH
10eb:	21 57 13		LD      HL,1357H
10ee:	CD 03 13		CALL    1303H
10f1:	D1      		POP     DE
10f2:	C1      		POP     BC
10f3:	F1      		POP     AF
10f4:	C9      		RET     

10f5:	E5      		PUSH    HL
10f6:	68      		LD      L,B
10f7:	CD 00 11		CALL    1100H
10fa:	69      		LD      L,C
10fb:	CD 00 11		CALL    1100H
10fe:	E1      		POP     HL
10ff:	C9      		RET     

1100:	F5      		PUSH    AF
1101:	C5      		PUSH    BC
1102:	D5      		PUSH    DE
1103:	45      		LD      B,L
1104:	26 00   		LD      H,00H
1106:	7D      		LD      A,L
1107:	07      		RLCA    
1108:	07      		RLCA    
1109:	85      		ADD     A,L
110a:	6F      		LD      L,A
110b:	11 54 17		LD      DE,1754H
110e:	19      		ADD     HL,DE
110f:	3A 80 7C		LD      A,(7C80H)
1112:	FE 00   		CP      00H
1114:	28 0E   		JR      Z,0124H
1116:	78      		LD      A,B
1117:	FE 00   		CP      00H
1119:	28 06   		JR      Z,0121H
111b:	97      		SUB     A
111c:	32 80 7C		LD      (7C80H),A
111f:	18 03   		JR      0124H
1121:	21 4F 17		LD      HL,174FH
1124:	CD 67 16		CALL    1667H
1127:	D1      		POP     DE
1128:	C1      		POP     BC
1129:	F1      		POP     AF
112a:	C9      		RET     

112b:	E5      		PUSH    HL
112c:	16 00   		LD      D,00H
112e:	5F      		LD      E,A
112f:	62      		LD      H,D
1130:	6A      		LD      L,D
1131:	19      		ADD     HL,DE
1132:	10 FD   		DJNZ    0131H
1134:	EB      		EX      DE,HL
1135:	E1      		POP     HL
1136:	C9      		RET     

1137:	E5      		PUSH    HL
1138:	6B      		LD      L,E
1139:	62      		LD      H,D
113a:	29      		ADD     HL,HL
113b:	29      		ADD     HL,HL
113c:	29      		ADD     HL,HL
113d:	29      		ADD     HL,HL
113e:	19      		ADD     HL,DE
113f:	29      		ADD     HL,HL
1140:	29      		ADD     HL,HL
1141:	29      		ADD     HL,HL
1142:	EB      		EX      DE,HL
1143:	E1      		POP     HL
1144:	C9      		RET     

1145:	D5      		PUSH    DE
1146:	5D      		LD      E,L
1147:	54      		LD      D,H
1148:	29      		ADD     HL,HL
1149:	19      		ADD     HL,DE
114a:	29      		ADD     HL,HL
114b:	19      		ADD     HL,DE
114c:	29      		ADD     HL,HL
114d:	D1      		POP     DE
114e:	C9      		RET     

114f:	C5      		PUSH    BC
1150:	D5      		PUSH    DE
1151:	E5      		PUSH    HL
1152:	F5      		PUSH    AF
1153:	3E 88   		LD      A,88H
1155:	90      		SUB     B
1156:	51      		LD      D,C
1157:	4F      		LD      C,A
1158:	F1      		POP     AF
1159:	58      		LD      E,B
115a:	77      		LD      (HL),A
115b:	23      		INC     HL
115c:	10 FC   		DJNZ    015AH
115e:	09      		ADD     HL,BC
115f:	43      		LD      B,E
1160:	15      		DEC     D
1161:	20 F7   		JR      NZ,015AH
1163:	E1      		POP     HL
1164:	D1      		POP     DE
1165:	C1      		POP     BC
1166:	C9      		RET     

;SUBROUTINE: DRAW_ELEVATOR - Draws elevator borders when they are in motion

1167:	C5      		PUSH    BC				;Store registers
1168:	D5      		PUSH    DE
1169:	E5      		PUSH    HL
116a:	32 A9 78		LD      (78A9H),A		;Load brush color into memory
116d:	3E 88   		LD      A,88H			;Load the maximum horizontal draw distance
116f:	90      		SUB     B				;Calculate the number of vertical pixel groups to draw on this CALL
1170:	51      		LD      D,C				;Load the horizontal distance to perform the draw (in units of pixel groups)
1171:	4F      		LD      C,A				;Load the distance to jump in memory to make the next draw (used at 0x117B: ADD HL, BC)
1172:	58      		LD      E,B				;Store the vertical distance to perform the draw (in units of pixel groups)
1173:	3A A9 78		LD      A,(78A9H)		;Load brush color into A
1176:	AE      		XOR     (HL)			;XOR (complement) the data at address in HL with A and store result in A
1177:	77      		LD      (HL),A			;Draw the color in A to the address in HL
1178:	23      		INC     HL				;Move to the next vertical pixel group
1179:	10 F8   		DJNZ    0173H			;Decrement the vertical pixel group counter 
117b:	09      		ADD     HL,BC			;Move to the next horizontal pixel group (B will always be $00 at this point, so, technically, only C is added to HL
117c:	43      		LD      B,E				;Re-initialize the vertical pixel group counter
117d:	15      		DEC     D				;Loop counter - used to set the zero flag to skip the following jump
117e:	20 F3   		JR      NZ,0173H		;Loop back to beginning of draw routine
1180:	E1      		POP     HL				;Reload registers before returning
1181:	D1      		POP     DE
1182:	C1      		POP     BC
1183:	C9      		RET     

1184:	7E      		LD      A,(HL)
1185:	12      		LD      (DE),A
1186:	23      		INC     HL
1187:	13      		INC     DE
1188:	10 FA   		DJNZ    0184H
118a:	C9      		RET     

118b:	F5      		PUSH    AF
118c:	3E 01   		LD      A,01H
118e:	32 5E 7D		LD      (7D5EH),A
1191:	3A 5E 7D		LD      A,(7D5EH)
1194:	FB      		EI      
1195:	FE 00   		CP      00H
1197:	20 F8   		JR      NZ,0191H
1199:	F1      		POP     AF
119a:	C9      		RET     

119b:	F5      		PUSH    AF
119c:	78      		LD      A,B
119d:	32 5D 7D		LD      (7D5DH),A
11a0:	D3 00   		OUT     (00H),A
11a2:	FB      		EI      
11a3:	3A 5D 7D		LD      A,(7D5DH)
11a6:	FE 00   		CP      00H
11a8:	20 F6   		JR      NZ,01A0H
11aa:	F1      		POP     AF
11ab:	C9      		RET     

;SUBROUTINE: DELAY_LOOP - This appears to loop through 65,790 iterations, as B is almost always loaded as $00. Is it a delay loop to allow [video] hardware to catch up?

11ac:	C5      		PUSH    BC
11ad:	0E 00   		LD      C,00H
11af:	0D      		DEC     C
11b0:	20 FD   		JR      NZ,01AFH
11b2:	D3 00   		OUT     (00H),A
11b4:	10 F9   		DJNZ    01AFH
11b6:	C1      		POP     BC
11b7:	C9      		RET     

11b8:	06 02   		LD      B,02H
11ba:	CD 9B 11		CALL    119BH
11bd:	D5      		PUSH    DE
11be:	E5      		PUSH    HL
11bf:	21 BF 7C		LD      HL,7CBFH
11c2:	11 04 00		LD      DE,0004H
11c5:	06 03   		LD      B,03H
11c7:	4E      		LD      C,(HL)
11c8:	B9      		CP      C
11c9:	28 05   		JR      Z,01D0H
11cb:	19      		ADD     HL,DE
11cc:	10 F9   		DJNZ    01C7H
11ce:	18 17   		JR      01E7H
11d0:	2B      		DEC     HL
11d1:	3A 8C 7C		LD      A,(7C8CH)
11d4:	FE 01   		CP      01H
11d6:	20 08   		JR      NZ,01E0H
11d8:	FB      		EI      
11d9:	3A B5 7C		LD      A,(7CB5H)
11dc:	FE 00   		CP      00H
11de:	28 07   		JR      Z,01E7H
11e0:	7E      		LD      A,(HL)
11e1:	D3 00   		OUT     (00H),A
11e3:	FE 00   		CP      00H
11e5:	20 EA   		JR      NZ,01D1H
11e7:	E1      		POP     HL
11e8:	D1      		POP     DE
11e9:	C9      		RET     

11ea:	06 3C   		LD      B,3CH
11ec:	CD 03 12		CALL    1203H
11ef:	FB      		EI      
11f0:	3A 5E 7D		LD      A,(7D5EH)
11f3:	FE 00   		CP      00H
11f5:	20 F5   		JR      NZ,01ECH
11f7:	D3 00   		OUT     (00H),A
11f9:	3C      		INC     A
11fa:	32 5E 7D		LD      (7D5EH),A
11fd:	10 ED   		DJNZ    01ECH
11ff:	0D      		DEC     C
1200:	20 E8   		JR      NZ,01EAH
1202:	C9      		RET     

1203:	F5      		PUSH    AF
1204:	3A 65 7D		LD      A,(7D65H)
1207:	FE 00   		CP      00H
1209:	20 02   		JR      NZ,020DH
120b:	F1      		POP     AF
120c:	C9      		RET     

120d:	31 FF 7F		LD      SP,7FFFH
1210:	3E 0A   		LD      A,0AH
1212:	D3 06   		OUT     (06H),A
1214:	97      		SUB     A
1215:	32 8C 7C		LD      (7C8CH),A
1218:	32 78 7D		LD      (7D78H),A
121b:	D3 02   		OUT     (02H),A
121d:	FB      		EI      
121e:	C3 86 20		JP      2086H
1221:	F5      		PUSH    AF
1222:	C5      		PUSH    BC
1223:	D5      		PUSH    DE
1224:	E5      		PUSH    HL
1225:	16 00   		LD      D,00H
1227:	59      		LD      E,C
1228:	26 80   		LD      H,80H
122a:	6A      		LD      L,D
122b:	22 50 7C		LD      (7C50H),HL
122e:	77      		LD      (HL),A
122f:	19      		ADD     HL,DE
1230:	CB 7C   		BIT     7,H
1232:	20 FA   		JR      NZ,022EH
1234:	D3 00   		OUT     (00H),A
1236:	2A 50 7C		LD      HL,(7C50H)
1239:	23      		INC     HL
123a:	22 50 7C		LD      (7C50H),HL
123d:	0D      		DEC     C
123e:	20 EE   		JR      NZ,022EH
1240:	E1      		POP     HL
1241:	D1      		POP     DE
1242:	C1      		POP     BC
1243:	F1      		POP     AF
1244:	C9      		RET     

;SUBROUTINE: DEATH_SPIRAL - Draws the spiraling, black letterbox that fills the screen upon losing a life

1245:	F5      		PUSH    AF
1246:	C5      		PUSH    BC
1247:	D5      		PUSH    DE
1248:	E5      		PUSH    HL
1249:	08      		EX      AF,AF'
124a:	3E 44   		LD      A,44H
124c:	21 FF 7F		LD      HL,7FFFH
124f:	D9      		EXX     
1250:	21 89 00		LD      HL,0089H
1253:	11 EC 00		LD      DE,00ECH
1256:	08      		EX      AF,AF'
1257:	2B      		DEC     HL
1258:	E5      		PUSH    HL
1259:	D9      		EXX     
125a:	C1      		POP     BC
125b:	11 01 00		LD      DE,0001H		;Top black bar
125e:	CD 8A 12		CALL    128AH
1261:	1B      		DEC     DE
1262:	D5      		PUSH    DE
1263:	D9      		EXX     
1264:	C1      		POP     BC
1265:	11 88 00		LD      DE,0088H		;Right black bar
1268:	CD 8A 12		CALL    128AH
126b:	2B      		DEC     HL
126c:	E5      		PUSH    HL
126d:	D9      		EXX     
126e:	C1      		POP     BC
126f:	11 FF FF		LD      DE,0FFFFH		;Bottom black bar
1272:	CD 8A 12		CALL    128AH
1275:	1B      		DEC     DE
1276:	D5      		PUSH    DE
1277:	D9      		EXX     
1278:	C1      		POP     BC
1279:	11 78 FF		LD      DE,0FF78H		;Left black bar
127c:	CD 8A 12		CALL    128AH
127f:	08      		EX      AF,AF'
1280:	3D      		DEC     A
1281:	20 D3   		JR      NZ,0256H
1283:	08      		EX      AF,AF'
1284:	D9      		EXX     
1285:	E1      		POP     HL
1286:	D1      		POP     DE
1287:	C1      		POP     BC
1288:	F1      		POP     AF
1289:	C9      		RET     

;SUBROUTINE: DEATH_SPIRAL_DRAW - Loads $00 into the relevant memory locations for each black bar

128a:	41      		LD      B,C
128b:	19      		ADD     HL,DE			;HL will be the address in video RAM to be written to
128c:	77      		LD      (HL),A			;Load $00 (black) into the address
128d:	10 FC   		DJNZ    028BH			;Loop until B sets the zero flag
128f:	D3 00   		OUT     (00H),A			;Output to CRT controller via port $00?
1291:	D9      		EXX     
1292:	C9      		RET     

;SUBROUTINE: ROM_STATUS_OUTPUT - Output ROM OK/NOT OK status after performing checksums

1293:	F5      		PUSH    AF
1294:	3E 01   		LD      A,01H
1296:	18 02   		JR      029AH
1298:	F5      		PUSH    AF
1299:	97      		SUB     A
129a:	32 F0 7B		LD      (7BF0H),A
129d:	C5      		PUSH    BC
129e:	D5      		PUSH    DE
129f:	E5      		PUSH    HL
12a0:	DD E5   		PUSH    IX
12a2:	FD E5   		PUSH    IY
12a4:	FD 46 00		LD      B,(IY+00H)
12a7:	DD E5   		PUSH    IX
12a9:	11 57 13		LD      DE,1357H
12ac:	08      		EX      AF,AF'
12ad:	3A F0 7B		LD      A,(7BF0H)
12b0:	FE 00   		CP      00H
12b2:	28 03   		JR      Z,02B7H
12b4:	11 CD 16		LD      DE,16CDH
12b7:	08      		EX      AF,AF'
12b8:	FD 23   		INC     IY
12ba:	FD 7E 00		LD      A,(IY+00H)
12bd:	FE FF   		CP      0FFH
12bf:	28 15   		JR      Z,02D6H
12c1:	6F      		LD      L,A
12c2:	26 00   		LD      H,00H
12c4:	08      		EX      AF,AF'
12c5:	CC 45 11		CALL    Z,1145H
12c8:	19      		ADD     HL,DE
12c9:	D3 00   		OUT     (00H),A
12cb:	CC 03 13		CALL    Z,1303H
12ce:	C4 67 16		CALL    NZ,1667H
12d1:	08      		EX      AF,AF'
12d2:	10 D5   		DJNZ    02A9H
12d4:	18 22   		JR      02F8H
12d6:	FD 23   		INC     IY
12d8:	FD 7E 00		LD      A,(IY+00H)
12db:	FE 80   		CP      80H
12dd:	28 06   		JR      Z,02E5H
12df:	32 F2 7B		LD      (7BF2H),A
12e2:	05      		DEC     B
12e3:	18 ED   		JR      02D2H
12e5:	DD E1   		POP     IX
12e7:	11 F8 FF		LD      DE,0FFF8H
12ea:	08      		EX      AF,AF'
12eb:	28 03   		JR      Z,02F0H
12ed:	11 FC FF		LD      DE,0FFFCH
12f0:	08      		EX      AF,AF'
12f1:	DD 19   		ADD     IX,DE
12f3:	DD E5   		PUSH    IX
12f5:	05      		DEC     B
12f6:	18 DA   		JR      02D2H
12f8:	DD E1   		POP     IX
12fa:	FD E1   		POP     IY
12fc:	DD E1   		POP     IX
12fe:	E1      		POP     HL
12ff:	D1      		POP     DE
1300:	C1      		POP     BC
1301:	F1      		POP     AF
1302:	C9      		RET     

1303:	C5      		PUSH    BC
1304:	11 04 00		LD      DE,0004H
1307:	DD 19   		ADD     IX,DE
1309:	0E 07   		LD      C,07H
130b:	06 04   		LD      B,04H
130d:	CD 24 13		CALL    1324H
1310:	06 03   		LD      B,03H
1312:	CD 24 13		CALL    1324H
1315:	11 8F 00		LD      DE,008FH
1318:	DD 19   		ADD     IX,DE
131a:	0D      		DEC     C
131b:	20 EE   		JR      NZ,030BH
131d:	11 94 01		LD      DE,0194H
1320:	DD 19   		ADD     IX,DE
1322:	C1      		POP     BC
1323:	C9      		RET     

1324:	5E      		LD      E,(HL)
1325:	23      		INC     HL
1326:	3A F1 7B		LD      A,(7BF1H)
1329:	FE 00   		CP      00H
132b:	3A F3 7B		LD      A,(7BF3H)
132e:	28 03   		JR      Z,0333H
1330:	DD 7E 00		LD      A,(IX+00H)
1333:	CB 3B   		SRL     E
1335:	30 0B   		JR      NC,0342H
1337:	E6 0F   		AND     0FH
1339:	57      		LD      D,A
133a:	3A F2 7B		LD      A,(7BF2H)
133d:	07      		RLCA    
133e:	07      		RLCA    
133f:	07      		RLCA    
1340:	07      		RLCA    
1341:	B2      		OR      D
1342:	CB 3B   		SRL     E
1344:	30 09   		JR      NC,034FH
1346:	F6 0F   		OR      0FH
1348:	57      		LD      D,A
1349:	3A F2 7B		LD      A,(7BF2H)
134c:	F6 F0   		OR      0F0H
134e:	A2      		AND     D
134f:	DD 77 00		LD      (IX+00H),A
1352:	DD 2B   		DEC     IX
1354:	10 D0   		DJNZ    0326H
1356:	C9      		RET     

1357:	00      		NOP     
1358:	00      		NOP     
1359:	00      		NOP     
135a:	00      		NOP     
135b:	00      		NOP     
135c:	00      		NOP     
135d:	00      		NOP     
135e:	00      		NOP     
135f:	00      		NOP     
1360:	00      		NOP     
1361:	00      		NOP     
1362:	00      		NOP     
1363:	00      		NOP     
1364:	00      		NOP     
1365:	F8      		RET     M

1366:	03      		INC     BC
1367:	FC 03 CE		CALL    M,0CE03H
136a:	00      		NOP     
136b:	C7      		RST     00H
136c:	00      		NOP     
136d:	CE 00   		ADC     A,00H
136f:	FC 03 F8		CALL    M,0F803H
1372:	03      		INC     BC
1373:	FF      		RST     38H
1374:	03      		INC     BC
1375:	FF      		RST     38H
1376:	03      		INC     BC
1377:	33      		INC     SP
1378:	03      		INC     BC
1379:	33      		INC     SP
137a:	03      		INC     BC
137b:	BB      		CP      E
137c:	03      		INC     BC
137d:	FF      		RST     38H
137e:	01 EE 00		LD      BC,00EEH
1381:	FC 00 FE		CALL    M,0FE00H
1384:	01 87 03		LD      BC,0387H
1387:	03      		INC     BC
1388:	03      		INC     BC
1389:	03      		INC     BC
138a:	03      		INC     BC
138b:	03      		INC     BC
138c:	03      		INC     BC
138d:	03      		INC     BC
138e:	03      		INC     BC
138f:	FF      		RST     38H
1390:	03      		INC     BC
1391:	FF      		RST     38H
1392:	03      		INC     BC
1393:	03      		INC     BC
1394:	03      		INC     BC
1395:	03      		INC     BC
1396:	03      		INC     BC
1397:	87      		ADD     A,A
1398:	03      		INC     BC
1399:	FE 01   		CP      01H
139b:	FC 00 FF		CALL    M,0FF00H
139e:	03      		INC     BC
139f:	FF      		RST     38H
13a0:	03      		INC     BC
13a1:	33      		INC     SP
13a2:	03      		INC     BC
13a3:	33      		INC     SP
13a4:	03      		INC     BC
13a5:	33      		INC     SP
13a6:	03      		INC     BC
13a7:	03      		INC     BC
13a8:	03      		INC     BC
13a9:	03      		INC     BC
13aa:	03      		INC     BC
13ab:	FF      		RST     38H
13ac:	03      		INC     BC
13ad:	FF      		RST     38H
13ae:	03      		INC     BC
13af:	33      		INC     SP
13b0:	00      		NOP     
13b1:	33      		INC     SP
13b2:	00      		NOP     
13b3:	33      		INC     SP
13b4:	00      		NOP     
13b5:	03      		INC     BC
13b6:	00      		NOP     
13b7:	03      		INC     BC
13b8:	00      		NOP     
13b9:	FC 00 FE		CALL    M,0FE00H
13bc:	01 87 03		LD      BC,0387H
13bf:	03      		INC     BC
13c0:	03      		INC     BC
13c1:	63      		LD      H,E
13c2:	03      		INC     BC
13c3:	E7      		RST     20H
13c4:	03      		INC     BC
13c5:	E6 03   		AND     03H
13c7:	FF      		RST     38H
13c8:	03      		INC     BC
13c9:	FF      		RST     38H
13ca:	03      		INC     BC
13cb:	30 00   		JR      NC,03CDH
13cd:	30 00   		JR      NC,03CFH
13cf:	30 00   		JR      NC,03D1H
13d1:	FF      		RST     38H
13d2:	03      		INC     BC
13d3:	FF      		RST     38H
13d4:	03      		INC     BC
13d5:	00      		NOP     
13d6:	00      		NOP     
13d7:	03      		INC     BC
13d8:	03      		INC     BC
13d9:	FF      		RST     38H
13da:	03      		INC     BC
13db:	FF      		RST     38H
13dc:	03      		INC     BC
13dd:	03      		INC     BC
13de:	03      		INC     BC
13df:	00      		NOP     
13e0:	00      		NOP     
13e1:	00      		NOP     
13e2:	00      		NOP     
13e3:	C0      		RET     NZ

13e4:	00      		NOP     
13e5:	C0      		RET     NZ

13e6:	01 80 03		LD      BC,0380H
13e9:	00      		NOP     
13ea:	03      		INC     BC
13eb:	80      		ADD     A,B
13ec:	03      		INC     BC
13ed:	FF      		RST     38H
13ee:	01 FF 00		LD      BC,00FFH
13f1:	FF      		RST     38H
13f2:	03      		INC     BC
13f3:	FF      		RST     38H
13f4:	03      		INC     BC
13f5:	78      		LD      A,B
13f6:	00      		NOP     
13f7:	FC 00 CE		CALL    M,0CE00H
13fa:	01 87 03		LD      BC,0387H
13fd:	03      		INC     BC
13fe:	03      		INC     BC
13ff:	FF      		RST     38H
1400:	03      		INC     BC
1401:	FF      		RST     38H
1402:	03      		INC     BC
1403:	00      		NOP     
1404:	03      		INC     BC
1405:	00      		NOP     
1406:	03      		INC     BC
1407:	00      		NOP     
1408:	03      		INC     BC
1409:	00      		NOP     
140a:	03      		INC     BC
140b:	00      		NOP     
140c:	03      		INC     BC
140d:	FF      		RST     38H
140e:	03      		INC     BC
140f:	FE 03   		CP      03H
1411:	1C      		INC     E
1412:	00      		NOP     
1413:	38 00   		JR      C,0415H
1415:	1C      		INC     E
1416:	00      		NOP     
1417:	FE 03   		CP      03H
1419:	FF      		RST     38H
141a:	03      		INC     BC
141b:	FF      		RST     38H
141c:	03      		INC     BC
141d:	FF      		RST     38H
141e:	03      		INC     BC
141f:	3C      		INC     A
1420:	00      		NOP     
1421:	78      		LD      A,B
1422:	00      		NOP     
1423:	F0      		RET     P

1424:	00      		NOP     
1425:	FF      		RST     38H
1426:	03      		INC     BC
1427:	FF      		RST     38H
1428:	03      		INC     BC
1429:	FC 00 FE		CALL    M,0FE00H
142c:	01 87 03		LD      BC,0387H
142f:	03      		INC     BC
1430:	03      		INC     BC
1431:	87      		ADD     A,A
1432:	03      		INC     BC
1433:	FE 01   		CP      01H
1435:	FC 00 FF		CALL    M,0FF00H
1438:	03      		INC     BC
1439:	FF      		RST     38H
143a:	03      		INC     BC
143b:	33      		INC     SP
143c:	00      		NOP     
143d:	33      		INC     SP
143e:	00      		NOP     
143f:	3B      		DEC     SP
1440:	00      		NOP     
1441:	1F      		RRA     
1442:	00      		NOP     
1443:	0E 00   		LD      C,00H
1445:	FC 00 FE		CALL    M,0FE00H
1448:	01 87 03		LD      BC,0387H
144b:	43      		LD      B,E
144c:	03      		INC     BC
144d:	87      		ADD     A,A
144e:	03      		INC     BC
144f:	FE 01   		CP      01H
1451:	FC 02 FF		CALL    M,0FF02H
1454:	03      		INC     BC
1455:	FF      		RST     38H
1456:	03      		INC     BC
1457:	73      		LD      (HL),E
1458:	00      		NOP     
1459:	73      		LD      (HL),E
145a:	00      		NOP     
145b:	FB      		EI      
145c:	01 9F 03		LD      BC,039FH
145f:	0E 03   		LD      C,03H
1461:	1E 03   		LD      E,03H
1463:	3F      		CCF     
1464:	03      		INC     BC
1465:	33      		INC     SP
1466:	03      		INC     BC
1467:	33      		INC     SP
1468:	03      		INC     BC
1469:	33      		INC     SP
146a:	03      		INC     BC
146b:	F3      		DI      
146c:	03      		INC     BC
146d:	E3      		EX      (SP),HL
146e:	01 03 00		LD      BC,0003H
1471:	03      		INC     BC
1472:	00      		NOP     
1473:	FF      		RST     38H
1474:	03      		INC     BC
1475:	FF      		RST     38H
1476:	03      		INC     BC
1477:	03      		INC     BC
1478:	00      		NOP     
1479:	03      		INC     BC
147a:	00      		NOP     
147b:	00      		NOP     
147c:	00      		NOP     
147d:	FF      		RST     38H
147e:	01 FF 03		LD      BC,03FFH
1481:	00      		NOP     
1482:	03      		INC     BC
1483:	00      		NOP     
1484:	03      		INC     BC
1485:	00      		NOP     
1486:	03      		INC     BC
1487:	FF      		RST     38H
1488:	03      		INC     BC
1489:	FF      		RST     38H
148a:	01 1F 00		LD      BC,001FH
148d:	7F      		LD      A,A
148e:	00      		NOP     
148f:	F0      		RET     P

1490:	01 C0 03		LD      BC,03C0H
1493:	F0      		RET     P

1494:	01 7F 00		LD      BC,007FH
1497:	1F      		RRA     
1498:	00      		NOP     
1499:	FF      		RST     38H
149a:	01 FF 03		LD      BC,03FFH
149d:	C0      		RET     NZ

149e:	01 E0 00		LD      BC,00E0H
14a1:	C0      		RET     NZ

14a2:	01 FF 03		LD      BC,03FFH
14a5:	FF      		RST     38H
14a6:	01 87 03		LD      BC,0387H
14a9:	CF      		RST     08H
14aa:	03      		INC     BC
14ab:	FC 00 78		CALL    M,7800H
14ae:	00      		NOP     
14af:	FC 00 CF		CALL    M,0CF00H
14b2:	03      		INC     BC
14b3:	87      		ADD     A,A
14b4:	03      		INC     BC
14b5:	0F      		RRCA    
14b6:	00      		NOP     
14b7:	1F      		RRA     
14b8:	00      		NOP     
14b9:	F8      		RET     M

14ba:	03      		INC     BC
14bb:	F8      		RET     M

14bc:	03      		INC     BC
14bd:	1F      		RRA     
14be:	00      		NOP     
14bf:	0F      		RRCA    
14c0:	00      		NOP     
14c1:	00      		NOP     
14c2:	00      		NOP     
14c3:	83      		ADD     A,E
14c4:	03      		INC     BC
14c5:	C3 03 F3		JP      0F303H
14c8:	03      		INC     BC
14c9:	7B      		LD      A,E
14ca:	03      		INC     BC
14cb:	3F      		CCF     
14cc:	03      		INC     BC
14cd:	0F      		RRCA    
14ce:	03      		INC     BC
14cf:	07      		RLCA    
14d0:	03      		INC     BC
14d1:	FE 01   		CP      01H
14d3:	FF      		RST     38H
14d4:	03      		INC     BC
14d5:	03      		INC     BC
14d6:	03      		INC     BC
14d7:	03      		INC     BC
14d8:	03      		INC     BC
14d9:	03      		INC     BC
14da:	03      		INC     BC
14db:	FF      		RST     38H
14dc:	03      		INC     BC
14dd:	FE 01   		CP      01H
14df:	00      		NOP     
14e0:	00      		NOP     
14e1:	02      		LD      (BC),A
14e2:	03      		INC     BC
14e3:	FF      		RST     38H
14e4:	03      		INC     BC
14e5:	FF      		RST     38H
14e6:	03      		INC     BC
14e7:	00      		NOP     
14e8:	03      		INC     BC
14e9:	00      		NOP     
14ea:	00      		NOP     
14eb:	00      		NOP     
14ec:	00      		NOP     
14ed:	0C      		INC     C
14ee:	03      		INC     BC
14ef:	8E      		ADC     A,(HL)
14f0:	03      		INC     BC
14f1:	C7      		RST     00H
14f2:	03      		INC     BC
14f3:	E3      		EX      (SP),HL
14f4:	03      		INC     BC
14f5:	77      		LD      (HL),A
14f6:	03      		INC     BC
14f7:	3E 03   		LD      A,03H
14f9:	1C      		INC     E
14fa:	03      		INC     BC
14fb:	CC 00 CE		CALL    Z,0CE00H
14fe:	01 87 03		LD      BC,0387H
1501:	33      		INC     SP
1502:	03      		INC     BC
1503:	33      		INC     SP
1504:	03      		INC     BC
1505:	FF      		RST     38H
1506:	03      		INC     BC
1507:	EE 01   		XOR     01H
1509:	3E 00   		LD      A,00H
150b:	3E 00   		LD      A,00H
150d:	30 00   		JR      NC,050FH
150f:	30 00   		JR      NC,0511H
1511:	FF      		RST     38H
1512:	03      		INC     BC
1513:	FF      		RST     38H
1514:	03      		INC     BC
1515:	30 00   		JR      NC,0517H
1517:	BF      		CP      A
1518:	01 BF 03		LD      BC,03BFH
151b:	33      		INC     SP
151c:	03      		INC     BC
151d:	33      		INC     SP
151e:	03      		INC     BC
151f:	33      		INC     SP
1520:	03      		INC     BC
1521:	F3      		DI      
1522:	03      		INC     BC
1523:	E3      		EX      (SP),HL
1524:	01 FE 01		LD      BC,01FEH
1527:	FF      		RST     38H
1528:	03      		INC     BC
1529:	30 03   		JR      NC,052EH
152b:	30 03   		JR      NC,0530H
152d:	30 03   		JR      NC,0532H
152f:	F0      		RET     P

1530:	03      		INC     BC
1531:	E0      		RET     PO

1532:	01 03 00		LD      BC,0003H
1535:	03      		INC     BC
1536:	02      		LD      (BC),A
1537:	83      		ADD     A,E
1538:	03      		INC     BC
1539:	E3      		EX      (SP),HL
153a:	03      		INC     BC
153b:	FB      		EI      
153c:	00      		NOP     
153d:	3F      		CCF     
153e:	00      		NOP     
153f:	0F      		RRCA    
1540:	00      		NOP     
1541:	CE 01   		ADC     A,01H
1543:	FF      		RST     38H
1544:	03      		INC     BC
1545:	33      		INC     SP
1546:	03      		INC     BC
1547:	33      		INC     SP
1548:	03      		INC     BC
1549:	33      		INC     SP
154a:	03      		INC     BC
154b:	FF      		RST     38H
154c:	03      		INC     BC
154d:	CE 01   		ADC     A,01H
154f:	1E 00   		LD      E,00H
1551:	3F      		CCF     
1552:	00      		NOP     
1553:	33      		INC     SP
1554:	00      		NOP     
1555:	33      		INC     SP
1556:	00      		NOP     
1557:	33      		INC     SP
1558:	00      		NOP     
1559:	FF      		RST     38H
155a:	03      		INC     BC
155b:	FE 01   		CP      01H
155d:	00      		NOP     
155e:	00      		NOP     
155f:	00      		NOP     
1560:	00      		NOP     
1561:	30 03   		JR      NC,0566H
1563:	30 03   		JR      NC,0568H
1565:	00      		NOP     
1566:	00      		NOP     
1567:	00      		NOP     
1568:	00      		NOP     
1569:	00      		NOP     
156a:	00      		NOP     
156b:	00      		NOP     
156c:	00      		NOP     
156d:	00      		NOP     
156e:	00      		NOP     
156f:	00      		NOP     
1570:	03      		INC     BC
1571:	00      		NOP     
1572:	03      		INC     BC
1573:	00      		NOP     
1574:	00      		NOP     
1575:	00      		NOP     
1576:	00      		NOP     
1577:	00      		NOP     
1578:	00      		NOP     
1579:	00      		NOP     
157a:	00      		NOP     
157b:	00      		NOP     
157c:	00      		NOP     
157d:	0B      		DEC     BC
157e:	00      		NOP     
157f:	07      		RLCA    
1580:	00      		NOP     
1581:	00      		NOP     
1582:	00      		NOP     
1583:	00      		NOP     
1584:	00      		NOP     
1585:	00      		NOP     
1586:	00      		NOP     
1587:	00      		NOP     
1588:	00      		NOP     
1589:	00      		NOP     
158a:	00      		NOP     
158b:	3F      		CCF     
158c:	03      		INC     BC
158d:	3F      		CCF     
158e:	03      		INC     BC
158f:	00      		NOP     
1590:	00      		NOP     
1591:	00      		NOP     
1592:	00      		NOP     
1593:	00      		NOP     
1594:	00      		NOP     
1595:	0E 00   		LD      C,00H
1597:	0F      		RRCA    
1598:	00      		NOP     
1599:	63      		LD      H,E
159a:	03      		INC     BC
159b:	73      		LD      (HL),E
159c:	03      		INC     BC
159d:	1F      		RRA     
159e:	00      		NOP     
159f:	0E 00   		LD      C,00H
15a1:	00      		NOP     
15a2:	00      		NOP     
15a3:	00      		NOP     
15a4:	00      		NOP     
15a5:	01 00 02		LD      BC,0200H
15a8:	00      		NOP     
15a9:	00      		NOP     
15aa:	00      		NOP     
15ab:	01 00 02		LD      BC,0200H
15ae:	00      		NOP     
15af:	00      		NOP     
15b0:	00      		NOP     
15b1:	00      		NOP     
15b2:	00      		NOP     
15b3:	02      		LD      (BC),A
15b4:	00      		NOP     
15b5:	01 00 00		LD      BC,0000H
15b8:	00      		NOP     
15b9:	02      		LD      (BC),A
15ba:	00      		NOP     
15bb:	01 00 00		LD      BC,0000H
15be:	00      		NOP     
15bf:	C0      		RET     NZ

15c0:	01 EE 03		LD      BC,03EEH
15c3:	3B      		DEC     SP
15c4:	03      		INC     BC
15c5:	3F      		CCF     
15c6:	03      		INC     BC
15c7:	E6 03   		AND     03H
15c9:	E0      		RET     PO

15ca:	01 70 03		LD      BC,0370H
15cd:	00      		NOP     
15ce:	00      		NOP     
15cf:	00      		NOP     
15d0:	00      		NOP     
15d1:	30 00   		JR      NC,05D3H
15d3:	30 00   		JR      NC,05D5H
15d5:	30 00   		JR      NC,05D7H
15d7:	00      		NOP     
15d8:	00      		NOP     
15d9:	00      		NOP     
15da:	00      		NOP     
15db:	38 00   		JR      C,05DDH
15dd:	38 00   		JR      C,05DFH
15df:	FF      		RST     38H
15e0:	01 FE 00		LD      BC,00FEH
15e3:	7C      		LD      A,H
15e4:	00      		NOP     
15e5:	38 00   		JR      C,05E7H
15e7:	10 00   		DJNZ    05E9H
15e9:	10 00   		DJNZ    05EBH
15eb:	38 00   		JR      C,05EDH
15ed:	7C      		LD      A,H
15ee:	00      		NOP     
15ef:	FE 00   		CP      00H
15f1:	FF      		RST     38H
15f2:	01 38 00		LD      BC,0038H
15f5:	38 00   		JR      C,05F7H
15f7:	7C      		LD      A,H
15f8:	00      		NOP     
15f9:	82      		ADD     A,D
15fa:	00      		NOP     
15fb:	39      		ADD     HL,SP
15fc:	01 45 01		LD      BC,0145H
15ff:	29      		ADD     HL,HL
1600:	01 82 00		LD      BC,0082H
1603:	7C      		LD      A,H
1604:	00      		NOP     
1605:	00      		NOP     
1606:	18 00   		JR      0608H
1608:	18 00   		JR      060AH
160a:	18 00   		JR      060CH
160c:	18 00   		JR      060EH
160e:	18 00   		JR      0610H
1610:	18 00   		JR      0612H
1612:	18 00   		JR      0614H
1614:	00      		NOP     
1615:	00      		NOP     
1616:	00      		NOP     
1617:	00      		NOP     
1618:	0B      		DEC     BC
1619:	00      		NOP     
161a:	07      		RLCA    
161b:	00      		NOP     
161c:	00      		NOP     
161d:	00      		NOP     
161e:	00      		NOP     
161f:	00      		NOP     
1620:	00      		NOP     
1621:	00      		NOP     
1622:	00      		NOP     
1623:	00      		NOP     
1624:	00      		NOP     
1625:	30 0B   		JR      NC,0632H
1627:	30 07   		JR      NC,0630H
1629:	00      		NOP     
162a:	00      		NOP     
162b:	00      		NOP     
162c:	00      		NOP     
162d:	00      		NOP     
162e:	00      		NOP     
162f:	00      		NOP     
1630:	00      		NOP     
1631:	00      		NOP     
1632:	00      		NOP     
1633:	FC 00 FE		CALL    M,0FE00H
1636:	01 03 03		LD      BC,0303H
1639:	00      		NOP     
163a:	00      		NOP     
163b:	00      		NOP     
163c:	00      		NOP     
163d:	00      		NOP     
163e:	00      		NOP     
163f:	00      		NOP     
1640:	00      		NOP     
1641:	03      		INC     BC
1642:	03      		INC     BC
1643:	FE 01   		CP      01H
1645:	FC 00 00		CALL    M,0000H
1648:	00      		NOP     
1649:	00      		NOP     
164a:	00      		NOP     
164b:	00      		NOP     
164c:	03      		INC     BC
164d:	C0      		RET     NZ

164e:	03      		INC     BC
164f:	F0      		RET     P

1650:	00      		NOP     
1651:	3C      		INC     A
1652:	00      		NOP     
1653:	0F      		RRCA    
1654:	00      		NOP     
1655:	03      		INC     BC
1656:	00      		NOP     
1657:	00      		NOP     
1658:	00      		NOP     
1659:	78      		LD      A,B
165a:	0C      		INC     C
165b:	CC 0C FE		CALL    Z,0FE0CH
165e:	1F      		RRA     
165f:	CC 0C FE		CALL    Z,0FE0CH
1662:	1F      		RRA     
1663:	CC 0C 8C		CALL    Z,8C0CH
1666:	07      		RLCA    
1667:	F5      		PUSH    AF
1668:	C5      		PUSH    BC
1669:	D5      		PUSH    DE
166a:	E5      		PUSH    HL
166b:	06 05   		LD      B,05H
166d:	0E 04   		LD      C,04H
166f:	7E      		LD      A,(HL)
1670:	07      		RLCA    
1671:	F5      		PUSH    AF
1672:	3A F1 7B		LD      A,(7BF1H)
1675:	FE 00   		CP      00H
1677:	3A F3 7B		LD      A,(7BF3H)
167a:	28 03   		JR      Z,067FH
167c:	DD 7E 00		LD      A,(IX+00H)
167f:	32 F4 7B		LD      (7BF4H),A
1682:	F1      		POP     AF
1683:	F5      		PUSH    AF
1684:	30 0F   		JR      NC,0695H
1686:	C5      		PUSH    BC
1687:	3A F4 7B		LD      A,(7BF4H)
168a:	E6 F0   		AND     0F0H
168c:	47      		LD      B,A
168d:	3A F2 7B		LD      A,(7BF2H)
1690:	80      		ADD     A,B
1691:	32 F4 7B		LD      (7BF4H),A
1694:	C1      		POP     BC
1695:	F1      		POP     AF
1696:	07      		RLCA    
1697:	F5      		PUSH    AF
1698:	30 15   		JR      NC,06AFH
169a:	C5      		PUSH    BC
169b:	3A F4 7B		LD      A,(7BF4H)
169e:	E6 0F   		AND     0FH
16a0:	47      		LD      B,A
16a1:	3A F2 7B		LD      A,(7BF2H)
16a4:	07      		RLCA    
16a5:	07      		RLCA    
16a6:	07      		RLCA    
16a7:	07      		RLCA    
16a8:	E6 F0   		AND     0F0H
16aa:	80      		ADD     A,B
16ab:	32 F4 7B		LD      (7BF4H),A
16ae:	C1      		POP     BC
16af:	3A F4 7B		LD      A,(7BF4H)
16b2:	DD 77 00		LD      (IX+00H),A
16b5:	DD 23   		INC     IX
16b7:	F1      		POP     AF
16b8:	0D      		DEC     C
16b9:	20 B5   		JR      NZ,0670H
16bb:	23      		INC     HL
16bc:	11 84 00		LD      DE,0084H
16bf:	DD 19   		ADD     IX,DE
16c1:	10 AA   		DJNZ    066DH
16c3:	11 10 01		LD      DE,0110H
16c6:	DD 19   		ADD     IX,DE
16c8:	E1      		POP     HL
16c9:	D1      		POP     DE
16ca:	C1      		POP     BC
16cb:	F1      		POP     AF
16cc:	C9      		RET     

16cd:	1C      		INC     E
16ce:	0A      		LD      A,(BC)
16cf:	09      		ADD     HL,BC
16d0:	0A      		LD      A,(BC)
16d1:	1C      		INC     E
16d2:	1F      		RRA     
16d3:	15      		DEC     D
16d4:	15      		DEC     D
16d5:	15      		DEC     D
16d6:	0A      		LD      A,(BC)
16d7:	0E 11   		LD      C,11H
16d9:	11 11 11		LD      DE,1111H
16dc:	1F      		RRA     
16dd:	11 11 11		LD      DE,1111H
16e0:	0E 1F   		LD      C,1FH
16e2:	15      		DEC     D
16e3:	15      		DEC     D
16e4:	15      		DEC     D
16e5:	11 1F 05		LD      DE,051FH
16e8:	05      		DEC     B
16e9:	05      		DEC     B
16ea:	01 0E 11		LD      BC,110EH
16ed:	15      		DEC     D
16ee:	15      		DEC     D
16ef:	1C      		INC     E
16f0:	1F      		RRA     
16f1:	04      		INC     B
16f2:	04      		INC     B
16f3:	04      		INC     B
16f4:	1F      		RRA     
16f5:	00      		NOP     
16f6:	11 1F 11		LD      DE,111FH
16f9:	00      		NOP     
16fa:	09      		ADD     HL,BC
16fb:	11 1F 01		LD      DE,011FH
16fe:	01 1F 04		LD      BC,041FH
1701:	0E 1B   		LD      C,1BH
1703:	11 1F 10		LD      DE,101FH
1706:	10 10   		DJNZ    0718H
1708:	10 1F   		DJNZ    0729H
170a:	01 1E 01		LD      BC,011EH
170d:	1F      		RRA     
170e:	1F      		RRA     
170f:	02      		LD      (BC),A
1710:	04      		INC     B
1711:	08      		EX      AF,AF'
1712:	1F      		RRA     
1713:	0E 11   		LD      C,11H
1715:	11 11 0E		LD      DE,0E11H
1718:	1F      		RRA     
1719:	05      		DEC     B
171a:	05      		DEC     B
171b:	05      		DEC     B
171c:	02      		LD      (BC),A
171d:	0E 11   		LD      C,11H
171f:	15      		DEC     D
1720:	09      		ADD     HL,BC
1721:	16 1F   		LD      D,1FH
1723:	05      		DEC     B
1724:	0D      		DEC     C
1725:	15      		DEC     D
1726:	12      		LD      (DE),A
1727:	12      		LD      (DE),A
1728:	15      		DEC     D
1729:	15      		DEC     D
172a:	15      		DEC     D
172b:	09      		ADD     HL,BC
172c:	01 01 1F		LD      BC,1F01H
172f:	01 01 0F		LD      BC,0F01H
1732:	10 10   		DJNZ    0744H
1734:	10 0F   		DJNZ    0745H
1736:	07      		RLCA    
1737:	08      		EX      AF,AF'
1738:	10 08   		DJNZ    0742H
173a:	07      		RLCA    
173b:	0F      		RRCA    
173c:	10 0C   		DJNZ    074AH
173e:	10 0F   		DJNZ    074FH
1740:	11 0A 04		LD      DE,040AH
1743:	0A      		LD      A,(BC)
1744:	11 01 02		LD      DE,0201H
1747:	1C      		INC     E
1748:	02      		LD      (BC),A
1749:	01 11 19		LD      BC,1911H
174c:	15      		DEC     D
174d:	13      		INC     DE
174e:	11 00 00		LD      DE,0000H
1751:	00      		NOP     
1752:	00      		NOP     
1753:	00      		NOP     
1754:	0E 19   		LD      C,19H
1756:	15      		DEC     D
1757:	13      		INC     DE
1758:	0E 00   		LD      C,00H
175a:	12      		LD      (DE),A
175b:	1F      		RRA     
175c:	10 00   		DJNZ    075EH
175e:	12      		LD      (DE),A
175f:	19      		ADD     HL,DE
1760:	15      		DEC     D
1761:	15      		DEC     D
1762:	12      		LD      (DE),A
1763:	09      		ADD     HL,BC
1764:	11 15 15		LD      DE,1515H
1767:	0B      		DEC     BC
1768:	07      		RLCA    
1769:	04      		INC     B
176a:	1F      		RRA     
176b:	04      		INC     B
176c:	04      		INC     B
176d:	17      		RLA     
176e:	15      		DEC     D
176f:	15      		DEC     D
1770:	15      		DEC     D
1771:	09      		ADD     HL,BC
1772:	0E 19   		LD      C,19H
1774:	14      		INC     D
1775:	14      		INC     D
1776:	08      		EX      AF,AF'
1777:	01 19 05		LD      BC,0519H
177a:	03      		INC     BC
177b:	01 0A 15		LD      BC,150AH
177e:	15      		DEC     D
177f:	15      		DEC     D
1780:	0A      		LD      A,(BC)
1781:	02      		LD      (BC),A
1782:	05      		DEC     B
1783:	05      		DEC     B
1784:	13      		INC     DE
1785:	0E 02   		LD      C,02H
1787:	01 2D 05		LD      BC,052DH
178a:	02      		LD      (BC),A
178b:	00      		NOP     
178c:	10 00   		DJNZ    078EH
178e:	00      		NOP     
178f:	00      		NOP     
1790:	00      		NOP     
1791:	04      		INC     B
1792:	04      		INC     B
1793:	04      		INC     B
1794:	00      		NOP     
1795:	04      		INC     B
1796:	0E 1F   		LD      C,1FH
1798:	04      		INC     B
1799:	04      		INC     B
179a:	04      		INC     B
179b:	04      		INC     B
179c:	1F      		RRA     
179d:	0E 04   		LD      C,04H
179f:	00      		NOP     
17a0:	20 10   		JR      NZ,07B2H
17a2:	00      		NOP     
17a3:	00      		NOP     
17a4:	00      		NOP     
17a5:	00      		NOP     
17a6:	03      		INC     BC
17a7:	00      		NOP     
17a8:	00      		NOP     
17a9:	00      		NOP     
17aa:	00      		NOP     
17ab:	17      		RLA     
17ac:	00      		NOP     
17ad:	00      		NOP     
17ae:	00      		NOP     
17af:	14      		INC     D
17b0:	00      		NOP     
17b1:	00      		NOP     
17b2:	00      		NOP     
17b3:	3F      		CCF     
17b4:	3F      		CCF     
17b5:	3F      		CCF     
17b6:	3F      		CCF     
17b7:	3F      		CCF     
17b8:	F5      		PUSH    AF
17b9:	DD E5   		PUSH    IX
17bb:	FD E5   		PUSH    IY
17bd:	3E 0B   		LD      A,0BH
17bf:	32 F2 7B		LD      (7BF2H),A
17c2:	FD 21 19		LD      IY,1819H
17c6:	DB 00   		IN      A,(00H)
17c8:	E6 01   		AND     01H
17ca:	FE 00   		CP      00H
17cc:	28 04   		JR      Z,07D2H
17ce:	FD 21 2C		LD      IY,182CH
17d2:	DD 21 E8		LD      IX,9EE8H
17d6:	CD 93 12		CALL    1293H
17d9:	D3 00   		OUT     (00H),A
17db:	3E 01   		LD      A,01H
17dd:	32 80 7C		LD      (7C80H),A
17e0:	FD 21 10		LD      IY,1810H
17e4:	DD 21 D9		LD      IX,0A6D9H
17e8:	CD 98 12		CALL    1298H
17eb:	3A 51 7C		LD      A,(7C51H)
17ee:	3C      		INC     A
17ef:	FE 10   		CP      10H
17f1:	38 02   		JR      C,07F5H
17f3:	3E 01   		LD      A,01H
17f5:	32 51 7C		LD      (7C51H),A
17f8:	32 F2 7B		LD      (7BF2H),A
17fb:	3A 65 7D		LD      A,(7D65H)
17fe:	DD 21 59		LD      IX,0D159H
1802:	C5      		PUSH    BC
1803:	CD B4 10		CALL    10B4H
1806:	CD C1 10		CALL    10C1H
1809:	C1      		POP     BC
180a:	FD E1   		POP     IY
180c:	DD E1   		POP     IX
180e:	F1      		POP     AF
180f:	C9      		RET     

1810:	08      		EX      AF,AF'
1811:	FF      		RST     38H
1812:	03      		INC     BC
1813:	03      		INC     BC
1814:	12      		LD      (DE),A
1815:	05      		DEC     B
1816:	04      		INC     B
1817:	09      		ADD     HL,BC
1818:	14      		INC     D
1819:	12      		LD      (DE),A
181a:	8C      		ADC     A,H
181b:	82      		ADD     A,D
181c:	0A      		LD      A,(BC)
181d:	55      		LD      D,L
181e:	14      		INC     D
181f:	0F      		RRCA    
1820:	28 5F   		JR      Z,0881H
1822:	82      		ADD     A,D
1823:	4B      		LD      C,E
1824:	14      		INC     D
1825:	55      		LD      D,L
1826:	82      		ADD     A,D
1827:	0A      		LD      A,(BC)
1828:	46      		LD      B,(HL)
1829:	28 41   		JR      Z,086CH
182b:	82      		ADD     A,D
182c:	12      		LD      (DE),A
182d:	91      		SUB     C
182e:	82      		ADD     A,D
182f:	0A      		LD      A,(BC)
1830:	55      		LD      D,L
1831:	14      		INC     D
1832:	0F      		RRCA    
1833:	28 5F   		JR      Z,0894H
1835:	5A      		LD      E,D
1836:	82      		ADD     A,D
1837:	4B      		LD      C,E
1838:	14      		INC     D
1839:	55      		LD      D,L
183a:	82      		ADD     A,D
183b:	0A      		LD      A,(BC)
183c:	46      		LD      B,(HL)
183d:	28 41   		JR      Z,0880H
183f:	F5      		PUSH    AF
1840:	E5      		PUSH    HL
1841:	DD E5   		PUSH    IX
1843:	21 68 7D		LD      HL,7D68H
1846:	3A 8C 7C		LD      A,(7C8CH)
1849:	FE 01   		CP      01H
184b:	28 24   		JR      Z,0871H
184d:	3A 67 7D		LD      A,(7D67H)
1850:	FE 01   		CP      01H
1852:	28 0E   		JR      Z,0862H
1854:	3E 03   		LD      A,03H
1856:	32 F2 7B		LD      (7BF2H),A
1859:	3A 64 7D		LD      A,(7D64H)
185c:	77      		LD      (HL),A
185d:	CD 76 18		CALL    1876H
1860:	18 0F   		JR      0871H
1862:	3E 0F   		LD      A,0FH
1864:	32 F2 7B		LD      (7BF2H),A
1867:	36 01   		LD      (HL),01H
1869:	CD 76 18		CALL    1876H
186c:	36 02   		LD      (HL),02H
186e:	CD 76 18		CALL    1876H
1871:	F1      		POP     AF
1872:	E1      		POP     HL
1873:	DD E1   		POP     IX
1875:	C9      		RET     

1876:	C5      		PUSH    BC
1877:	D5      		PUSH    DE
1878:	E5      		PUSH    HL
1879:	3E 01   		LD      A,01H
187b:	32 80 7C		LD      (7C80H),A
187e:	DD 21 C8		LD      IX,85C8H
1882:	11 8A 7D		LD      DE,7D8AH
1885:	BE      		CP      (HL)
1886:	28 07   		JR      Z,088FH
1888:	DD 21 BE		LD      IX,85BEH
188c:	11 8D 7D		LD      DE,7D8DH
188f:	2E 02   		LD      L,02H
1891:	1A      		LD      A,(DE)
1892:	CD B4 10		CALL    10B4H
1895:	CD C1 10		CALL    10C1H
1898:	1B      		DEC     DE
1899:	2D      		DEC     L
189a:	20 F5   		JR      NZ,0891H
189c:	1A      		LD      A,(DE)
189d:	CD B4 10		CALL    10B4H
18a0:	97      		SUB     A
18a1:	32 80 7C		LD      (7C80H),A
18a4:	CD C1 10		CALL    10C1H
18a7:	E1      		POP     HL
18a8:	D1      		POP     DE
18a9:	C1          	POP     BC
18aa:	C9          	RET     

18ab:	C5          	PUSH    BC
18ac:	D5          	PUSH    DE
18ad:	E5          	PUSH    HL
18ae:	3A 6C 7D    	LD      A,(7D6CH)
18b1:	67          	LD      H,A
18b2:	3E 0E       	LD      A,0EH
18b4:	32 F2 7B    	LD      (7BF2H),A
18b7:	DD 21 BC 85  	LD      IX,85BCH
18bb:	11 8A 7D    	LD      DE,7D8AH
18be:	3E 01       	LD      A,01H
18c0:	32 80 7C    	LD      (7C80H),A
18c3:	2E 02       	LD      L,02H
18c5:	1A          	LD      A,(DE)
18c6:	CD B4 10    	CALL    10B4H
18c9:	CD F5 10    	CALL    10F5H
18cc:	1B          	DEC     DE
18cd:	2D          	DEC     L
18ce:	20 F5       	JR      NZ,08C5H
18d0:	1A          	LD      A,(DE)
18d1:	CD B4 10    	CALL    10B4H
18d4:	97          	SUB     A
18d5:	32 80 7C    	LD      (7C80H),A
18d8:	CD F5 10    	CALL    10F5H
18db:	7C          	LD      A,H
18dc:	FE 02       	CP      02H
18de:	20 0B       	JR      NZ,08EBH
18e0:	26 00       	LD      H,00H
18e2:	DD 21 3C E3  	LD      IX,0E33CH
18e6:	11 8D 7D    	LD      DE,7D8DH
18e9:	18 D3       	JR      08BEH
18eb:	E1          	POP     HL
18ec:	D1          	POP     DE
18ed:	C1          	POP     BC
18ee:	C9          	RET     

18ef:	F5          	PUSH    AF
18f0:	C5          	PUSH    BC
18f1:	D5          	PUSH    DE
18f2:	E5          	PUSH    HL
18f3:	57          	LD      D,A
18f4:	3A 8C 7C    	LD      A,(7C8CH)
18f7:	FE 01       	CP      01H
18f9:	CA 35 19    	JP      Z,1935H
18fc:	7A          	LD      A,D
18fd:	21 58 19    	LD      HL,1958H
1900:	07          	RLCA    
1901:	82          	ADD     A,D
1902:	85          	ADD     A,L
1903:	6F          	LD      L,A
1904:	3E 00       	LD      A,00H
1906:	8C          	ADC     A,H
1907:	67          	LD      H,A
1908:	11 88 7D    	LD      DE,7D88H
190b:	3A 64 7D    	LD      A,(7D64H)
190e:	FE 01       	CP      01H
1910:	28 03       	JR      Z,0915H
1912:	11 8B 7D    	LD      DE,7D8BH
1915:	1A          	LD      A,(DE)
1916:	86          	ADD     A,(HL)
1917:	27          	DAA     
1918:	12          	LD      (DE),A
1919:	23          	INC     HL
191a:	13          	INC     DE
191b:	1A          	LD      A,(DE)
191c:	8E          	ADC     A,(HL)
191d:	27          	DAA     
191e:	12          	LD      (DE),A
191f:	23          	INC     HL
1920:	13          	INC     DE
1921:	1A          	LD      A,(DE)
1922:	8E          	ADC     A,(HL)
1923:	27          	DAA     
1924:	12          	LD      (DE),A
1925:	21 84 7D    	LD      HL,7D84H
1928:	3A 64 7D    	LD      A,(7D64H)
192b:	FE 01       	CP      01H
192d:	20 03       	JR      NZ,0932H
192f:	21 82 7D    	LD      HL,7D82H
1932:	CD 3D 19    	CALL    193DH
1935:	CD 3F 18    	CALL    183FH
1938:	E1          	POP     HL
1939:	D1          	POP     DE
193a:	C1          	POP     BC
193b:	F1          	POP     AF
193c:	C9          	RET     

193d:	3A 4D 7C    	LD      A,(7C4DH)
1940:	47          	LD      B,A
1941:	1A          	LD      A,(DE)
1942:	B8          	CP      B
1943:	38 12       	JR      C,0957H
1945:	7E          	LD      A,(HL)
1946:	FE 00       	CP      00H
1948:	28 0D       	JR      Z,0957H
194a:	23          	INC     HL
194b:	34          	INC     (HL)
194c:	CD 8E 19    	CALL    198EH
194f:	3E 13       	LD      A,13H
1951:	CD 53 0B    	CALL    0B53H
1954:	97          	SUB     A
1955:	2B          	DEC     HL
1956:	77          	LD      (HL),A
1957:	C9          	RET     

1958:	00          	NOP     
1959:	50          	LD      D,B
195a:	00          	NOP     
195b:	55          	LD      D,L
195c:	00          	NOP     
195d:	00          	NOP     
195e:	66          	LD      H,(HL)
195f:	00          	NOP     
1960:	00          	NOP     
1961:	77          	LD      (HL),A
1962:	00          	NOP     
1963:	00          	NOP     
1964:	88          	ADC     A,B
1965:	00          	NOP     
1966:	00          	NOP     
1967:	99          	SBC     A,C
1968:	00          	NOP     
1969:	00          	NOP     
196a:	00          	NOP     
196b:	01 00 10    	LD      BC,1000H
196e:	01 00 20    	LD      BC,2000H
1971:	01 00 30    	LD      BC,3000H
1974:	01 00 40    	LD      BC,4000H
1977:	01 00 50    	LD      BC,5000H
197a:	01 00 60    	LD      BC,6000H
197d:	01 00 70    	LD      BC,7000H
1980:	01 00 80    	LD      BC,8000H
1983:	01 00 90    	LD      BC,9000H
1986:	01 00 00    	LD      BC,0000H
1989:	02          	LD      (BC),A
198a:	00          	NOP     
198b:	10 02       	DJNZ    098FH
198d:	00          	NOP     
198e:	F5          	PUSH    AF
198f:	C5          	PUSH    BC
1990:	D5          	PUSH    DE
1991:	E5          	PUSH    HL
1992:	DD E5       	PUSH    IX
1994:	3A 8C 7C    	LD      A,(7C8CH)
1997:	FE 01       	CP      01H
1999:	28 1B       	JR      Z,09B6H
199b:	01 55 10    	LD      BC,1055H
199e:	21 EE AA    	LD      HL,0AAEEH
19a1:	CD 4F 11    	CALL    114FH
19a4:	01 83 7D    	LD      BC,7D83H
19a7:	21 F8 AA    	LD      HL,0AAF8H
19aa:	CD BD 19    	CALL    19BDH
19ad:	01 85 7D    	LD      BC,7D85H
19b0:	21 EE AA    	LD      HL,0AAEEH
19b3:	CD BD 19    	CALL    19BDH
19b6:	DD E1       	POP     IX
19b8:	E1          	POP     HL
19b9:	D1          	POP     DE
19ba:	C1          	POP     BC
19bb:	F1          	POP     AF
19bc:	C9          	RET     

19bd:	0A          	LD      A,(BC)
19be:	FE 00       	CP      00H
19c0:	C8          	RET     Z

19c1:	FE 06       	CP      06H
19c3:	38 02       	JR      C,09C7H
19c5:	3E 05       	LD      A,05H
19c7:	47          	LD      B,A
19c8:	11 DA 42    	LD      DE,42DAH
19cb:	CD 84 30    	CALL    3084H
19ce:	11 F8 07    	LD      DE,07F8H
19d1:	19          	ADD     HL,DE
19d2:	10 F4       	DJNZ    09C8H
19d4:	C9          	RET     

19d5:	F5          	PUSH    AF
19d6:	E5          	PUSH    HL
19d7:	FD E5       	PUSH    IY
19d9:	21 68 7D    	LD      HL,7D68H
19dc:	3A 8C 7C    	LD      A,(7C8CH)
19df:	FE 01       	CP      01H
19e1:	28 4A       	JR      Z,0A2DH
19e3:	FD 21 56 1A  	LD      IY,1A56H
19e7:	3A 67 7D    	LD      A,(7D67H)
19ea:	FE 01       	CP      01H
19ec:	28 22       	JR      Z,0A10H
19ee:	3E 0E       	LD      A,0EH
19f0:	32 F2 7B    	LD      (7BF2H),A
19f3:	DD 21 A8 D8  	LD      IX,0D8A8H
19f7:	3A 64 7D    	LD      A,(7D64H)
19fa:	77          	LD      (HL),A
19fb:	FE 01       	CP      01H
19fd:	28 04       	JR      Z,0A03H
19ff:	DD 21 9E D8  	LD      IX,0D89EH
1a03:	CD 93 12    	CALL    1293H
1a06:	3E 03       	LD      A,03H
1a08:	32 F2 7B    	LD      (7BF2H),A
1a0b:	CD 32 1A    	CALL    1A32H
1a0e:	18 1D       	JR      0A2DH
1a10:	3E 0F       	LD      A,0FH
1a12:	32 F2 7B    	LD      (7BF2H),A
1a15:	DD 21 9E D8  	LD      IX,0D89EH
1a19:	CD 93 12    	CALL    1293H
1a1c:	36 02       	LD      (HL),02H
1a1e:	CD 32 1A    	CALL    1A32H
1a21:	DD 21 A8 D8  	LD      IX,0D8A8H
1a25:	CD 93 12    	CALL    1293H
1a28:	36 01       	LD      (HL),01H
1a2a:	CD 32 1A    	CALL    1A32H
1a2d:	FD E1       	POP     IY
1a2f:	E1          	POP     HL
1a30:	F1          	POP     AF
1a31:	C9          	RET     

1a32:	C5          	PUSH    BC
1a33:	DD E5       	PUSH    IX
1a35:	3E 01       	LD      A,01H
1a37:	32 80 7C    	LD      (7C80H),A
1a3a:	DD 21 F8 EE  	LD      IX,0EEF8H
1a3e:	01 92 7D    	LD      BC,7D92H
1a41:	BE          	CP      (HL)
1a42:	28 07       	JR      Z,0A4BH
1a44:	DD 21 EE EE  	LD      IX,0EEEEH
1a48:	01 95 7D    	LD      BC,7D95H
1a4b:	0A          	LD      A,(BC)
1a4c:	CD B4 10    	CALL    10B4H
1a4f:	CD F5 10    	CALL    10F5H
1a52:	DD E1       	POP     IX
1a54:	C1          	POP     BC
1a55:	C9          	RET     

1a56:	05          	DEC     B
1a57:	37          	SCF     
1a58:	14          	INC     D
1a59:	69          	LD      L,C
1a5a:	14          	INC     D
1a5b:	37          	SCF     
1a5c:	DD E5       	PUSH    IX
1a5e:	FD E5       	PUSH    IY
1a60:	3E B5       	LD      A,0B5H
1a62:	32 79 7D    	LD      (7D79H),A
1a65:	FD 21 86 1A  	LD      IY,1A86H
1a69:	DD 21 34 83  	LD      IX,8334H
1a6d:	CD 93 12    	CALL    1293H
1a70:	01 B5 05    	LD      BC,05B5H
1a73:	21 81 99    	LD      HL,9981H
1a76:	3E EE       	LD      A,0EEH
1a78:	CD 4F 11    	CALL    114FH
1a7b:	21 21 F9    	LD      HL,0F921H
1a7e:	22 7A 7D    	LD      (7D7AH),HL
1a81:	FD E1       	POP     IY
1a83:	DD E1       	POP     IX
1a85:	C9          	RET     

1a86:	10 FF       	DJNZ    0A87H
1a88:	04          	INC     B
1a89:	14          	INC     D
1a8a:	41          	LD      B,C
1a8b:	14          	INC     D
1a8c:	55          	LD      D,L
1a8d:	1E 78       	LD      E,78H
1a8f:	FF          	RST     38H
1a90:	80          	ADD     A,B
1a91:	82          	ADD     A,D
1a92:	37          	SCF     
1a93:	14          	INC     D
1a94:	69          	LD      L,C
1a95:	14          	INC     D
1a96:	37          	SCF     
1a97:	21 7C 7D    	LD      HL,7D7CH
1a9a:	35          	DEC     (HL)
1a9b:	20 34       	JR      NZ,0AD1H
1a9d:	32 7C 7D    	LD      (7D7CH),A
1aa0:	3A 8C 7C    	LD      A,(7C8CH)
1aa3:	FE 01       	CP      01H
1aa5:	28 2A       	JR      Z,0AD1H
1aa7:	2A 7A 7D    	LD      HL,(7D7AH)
1aaa:	3E 11       	LD      A,11H
1aac:	77          	LD      (HL),A
1aad:	23          	INC     HL
1aae:	77          	LD      (HL),A
1aaf:	23          	INC     HL
1ab0:	77          	LD      (HL),A
1ab1:	23          	INC     HL
1ab2:	77          	LD      (HL),A
1ab3:	23          	INC     HL
1ab4:	77          	LD      (HL),A
1ab5:	11 74 FF    	LD      DE,0FF74H
1ab8:	19          	ADD     HL,DE
1ab9:	22 7A 7D    	LD      (7D7AH),HL
1abc:	21 79 7D    	LD      HL,7D79H
1abf:	35          	DEC     (HL)
1ac0:	20 05       	JR      NZ,0AC7H
1ac2:	3E 01       	LD      A,01H
1ac4:	32 6D 7D    	LD      (7D6DH),A
1ac7:	7E          	LD      A,(HL)
1ac8:	FE 32       	CP      32H
1aca:	30 05       	JR      NC,0AD1H
1acc:	3E 03       	LD      A,03H
1ace:	CD 53 0B    	CALL    0B53H
1ad1:	C9          	RET     

1ad2:	F5          	PUSH    AF
1ad3:	C5          	PUSH    BC
1ad4:	D5          	PUSH    DE
1ad5:	E5          	PUSH    HL
1ad6:	DD E5       	PUSH    IX
1ad8:	FD E5       	PUSH    IY
1ada:	3E 0F       	LD      A,0FH
1adc:	32 52 7C    	LD      (7C52H),A
1adf:	DD 21 A9 8C  	LD      IX,8CA9H
1ae3:	0E 14       	LD      C,14H
1ae5:	11 A8 02    	LD      DE,02A8H
1ae8:	21 39 1D    	LD      HL,1D39H
1aeb:	CD 56 1B    	CALL    1B56H
1aee:	DD 19       	ADD     IX,DE
1af0:	21 7B 1D    	LD      HL,1D7BH
1af3:	CD 56 1B    	CALL    1B56H
1af6:	DD 19       	ADD     IX,DE
1af8:	21 FF 1B    	LD      HL,1BFFH
1afb:	CD 56 1B    	CALL    1B56H
1afe:	11 A0 0A    	LD      DE,0AA0H
1b01:	DD 19       	ADD     IX,DE
1b03:	21 55 1E    	LD      HL,1E55H
1b06:	CD 56 1B    	CALL    1B56H
1b09:	11 A8 02    	LD      DE,02A8H
1b0c:	DD 19       	ADD     IX,DE
1b0e:	21 87 1C    	LD      HL,1C87H
1b11:	CD 56 1B    	CALL    1B56H
1b14:	DD 19       	ADD     IX,DE
1b16:	21 C9 1C    	LD      HL,1CC9H
1b19:	CD 56 1B    	CALL    1B56H
1b1c:	DD 19       	ADD     IX,DE
1b1e:	21 BF 1D    	LD      HL,1DBFH
1b21:	CD 56 1B    	CALL    1B56H
1b24:	21 D1 EB    	LD      HL,0EBD1H
1b27:	11 44 1B    	LD      DE,1B44H
1b2a:	06 09       	LD      B,09H
1b2c:	1A          	LD      A,(DE)
1b2d:	77          	LD      (HL),A
1b2e:	23          	INC     HL
1b2f:	13          	INC     DE
1b30:	1A          	LD      A,(DE)
1b31:	77          	LD      (HL),A
1b32:	13          	INC     DE
1b33:	D5          	PUSH    DE
1b34:	11 87 00    	LD      DE,0087H
1b37:	19          	ADD     HL,DE
1b38:	D1          	POP     DE
1b39:	10 F1       	DJNZ    0B2CH
1b3b:	FD E1       	POP     IY
1b3d:	DD E1       	POP     IX
1b3f:	E1          	POP     HL
1b40:	D1          	POP     DE
1b41:	C1          	POP     BC
1b42:	F1          	POP     AF
1b43:	C9          	RET     

1b44:	00          	NOP     
1b45:	01 11 01    	LD      BC,0111H
1b48:	00          	NOP     
1b49:	01 00 00    	LD      BC,0000H
1b4c:	11 01 00    	LD      DE,0001H
1b4f:	01 11 00    	LD      BC,0011H
1b52:	00          	NOP     
1b53:	01 11 01    	LD      BC,0111H
1b56:	F5          	PUSH    AF
1b57:	C5          	PUSH    BC
1b58:	D5          	PUSH    DE
1b59:	E5          	PUSH    HL
1b5a:	11 55 7C    	LD      DE,7C55H
1b5d:	1A          	LD      A,(DE)
1b5e:	C6 03       	ADD     A,03H
1b60:	E6 0F       	AND     0FH
1b62:	12          	LD      (DE),A
1b63:	47          	LD      B,A
1b64:	13          	INC     DE
1b65:	1A          	LD      A,(DE)
1b66:	3C          	INC     A
1b67:	CB 67       	BIT     4,A
1b69:	28 02       	JR      Z,0B6DH
1b6b:	3E 01       	LD      A,01H
1b6d:	12          	LD      (DE),A
1b6e:	B8          	CP      B
1b6f:	28 F5       	JR      Z,0B66H
1b71:	D3 00       	OUT     (00H),A
1b73:	3A 52 7C    	LD      A,(7C52H)
1b76:	47          	LD      B,A
1b77:	97          	SUB     A
1b78:	32 81 7C    	LD      (7C81H),A
1b7b:	7E          	LD      A,(HL)
1b7c:	57          	LD      D,A
1b7d:	E6 07       	AND     07H
1b7f:	CB 3A       	SRL     D
1b81:	CB 3A       	SRL     D
1b83:	CB 3A       	SRL     D
1b85:	5F          	LD      E,A
1b86:	3A 81 7C    	LD      A,(7C81H)
1b89:	FE 00       	CP      00H
1b8b:	20 1F       	JR      NZ,0BACH
1b8d:	DD 7E 00    	LD      A,(IX+00H)
1b90:	32 4F 7C    	LD      (7C4FH),A
1b93:	D5          	PUSH    DE
1b94:	7B          	LD      A,E
1b95:	FE 00       	CP      00H
1b97:	28 07       	JR      Z,0BA0H
1b99:	CD F0 1B    	CALL    1BF0H
1b9c:	AA          	XOR     D
1b9d:	32 4F 7C    	LD      (7C4FH),A
1ba0:	D1          	POP     DE
1ba1:	15          	DEC     D
1ba2:	20 08       	JR      NZ,0BACH
1ba4:	3E 01       	LD      A,01H
1ba6:	32 81 7C    	LD      (7C81H),A
1ba9:	23          	INC     HL
1baa:	18 CF       	JR      0B7BH
1bac:	D5          	PUSH    DE
1bad:	7B          	LD      A,E
1bae:	FE 00       	CP      00H
1bb0:	28 0F       	JR      Z,0BC1H
1bb2:	CD F0 1B    	CALL    1BF0H
1bb5:	CB 22       	SLA     D
1bb7:	CB 22       	SLA     D
1bb9:	CB 22       	SLA     D
1bbb:	CB 22       	SLA     D
1bbd:	AA          	XOR     D
1bbe:	32 4F 7C    	LD      (7C4FH),A
1bc1:	D1          	POP     DE
1bc2:	3A 4F 7C    	LD      A,(7C4FH)
1bc5:	DD 77 00    	LD      (IX+00H),A
1bc8:	DD 23       	INC     IX
1bca:	97          	SUB     A
1bcb:	32 81 7C    	LD      (7C81H),A
1bce:	10 02       	DJNZ    0BD2H
1bd0:	18 06       	JR      0BD8H
1bd2:	15          	DEC     D
1bd3:	20 B1       	JR      NZ,0B86H
1bd5:	23          	INC     HL
1bd6:	18 A3       	JR      0B7BH
1bd8:	3A 52 7C    	LD      A,(7C52H)
1bdb:	47          	LD      B,A
1bdc:	D5          	PUSH    DE
1bdd:	16 00       	LD      D,00H
1bdf:	5F          	LD      E,A
1be0:	3E 88       	LD      A,88H
1be2:	93          	SUB     E
1be3:	5F          	LD      E,A
1be4:	DD 19       	ADD     IX,DE
1be6:	D1          	POP     DE
1be7:	0D          	DEC     C
1be8:	23          	INC     HL
1be9:	20 90       	JR      NZ,0B7BH
1beb:	E1          	POP     HL
1bec:	D1          	POP     DE
1bed:	C1          	POP     BC
1bee:	F1          	POP     AF
1bef:	C9          	RET     

1bf0:	E5          	PUSH    HL
1bf1:	21 53 7C    	LD      HL,7C53H
1bf4:	3D          	DEC     A
1bf5:	5F          	LD      E,A
1bf6:	16 00       	LD      D,00H
1bf8:	19          	ADD     HL,DE
1bf9:	56          	LD      D,(HL)
1bfa:	E1          	POP     HL
1bfb:	3A 4F 7C    	LD      A,(7C4FH)
1bfe:	C9          	RET     

1bff:	F4 F4 14    	CALL    P,14F4H
1c02:	D3 14       	OUT     (14H),A
1c04:	14          	INC     D
1c05:	D3 14       	OUT     (14H),A
1c07:	14          	INC     D
1c08:	13          	INC     DE
1c09:	54          	LD      D,H
1c0a:	13          	INC     DE
1c0b:	54          	LD      D,H
1c0c:	13          	INC     DE
1c0d:	14          	INC     D
1c0e:	14          	INC     D
1c0f:	13          	INC     DE
1c10:	54          	LD      D,H
1c11:	13          	INC     DE
1c12:	54          	LD      D,H
1c13:	13          	INC     DE
1c14:	14          	INC     D
1c15:	14          	INC     D
1c16:	13          	INC     DE
1c17:	14          	INC     D
1c18:	30 14       	JR      NC,0C2EH
1c1a:	13          	INC     DE
1c1b:	14          	INC     D
1c1c:	30 14       	JR      NC,0C32H
1c1e:	13          	INC     DE
1c1f:	14          	INC     D
1c20:	14          	INC     D
1c21:	13          	INC     DE
1c22:	14          	INC     D
1c23:	30 14       	JR      NC,0C39H
1c25:	13          	INC     DE
1c26:	14          	INC     D
1c27:	30 14       	JR      NC,0C3DH
1c29:	13          	INC     DE
1c2a:	14          	INC     D
1c2b:	14          	INC     D
1c2c:	13          	INC     DE
1c2d:	14          	INC     D
1c2e:	30 14       	JR      NC,0C44H
1c30:	13          	INC     DE
1c31:	14          	INC     D
1c32:	30 14       	JR      NC,0C48H
1c34:	13          	INC     DE
1c35:	14          	INC     D
1c36:	14          	INC     D
1c37:	13          	INC     DE
1c38:	14          	INC     D
1c39:	30 14       	JR      NC,0C4FH
1c3b:	13          	INC     DE
1c3c:	14          	INC     D
1c3d:	30 14       	JR      NC,0C53H
1c3f:	13          	INC     DE
1c40:	14          	INC     D
1c41:	14          	INC     D
1c42:	13          	INC     DE
1c43:	14          	INC     D
1c44:	30 14       	JR      NC,0C5AH
1c46:	13          	INC     DE
1c47:	14          	INC     D
1c48:	30 14       	JR      NC,0C5EH
1c4a:	13          	INC     DE
1c4b:	14          	INC     D
1c4c:	14          	INC     D
1c4d:	13          	INC     DE
1c4e:	14          	INC     D
1c4f:	30 34       	JR      NC,0C85H
1c51:	30 14       	JR      NC,0C67H
1c53:	13          	INC     DE
1c54:	14          	INC     D
1c55:	14          	INC     D
1c56:	13          	INC     DE
1c57:	14          	INC     D
1c58:	30 34       	JR      NC,0C8EH
1c5a:	30 14       	JR      NC,0C70H
1c5c:	13          	INC     DE
1c5d:	14          	INC     D
1c5e:	14          	INC     D
1c5f:	13          	INC     DE
1c60:	14          	INC     D
1c61:	90          	SUB     B
1c62:	14          	INC     D
1c63:	13          	INC     DE
1c64:	14          	INC     D
1c65:	14          	INC     D
1c66:	13          	INC     DE
1c67:	14          	INC     D
1c68:	90          	SUB     B
1c69:	14          	INC     D
1c6a:	13          	INC     DE
1c6b:	14          	INC     D
1c6c:	14          	INC     D
1c6d:	13          	INC     DE
1c6e:	14          	INC     D
1c6f:	90          	SUB     B
1c70:	14          	INC     D
1c71:	13          	INC     DE
1c72:	14          	INC     D
1c73:	14          	INC     D
1c74:	13          	INC     DE
1c75:	14          	INC     D
1c76:	90          	SUB     B
1c77:	14          	INC     D
1c78:	13          	INC     DE
1c79:	14          	INC     D
1c7a:	14          	INC     D
1c7b:	13          	INC     DE
1c7c:	14          	INC     D
1c7d:	90          	SUB     B
1c7e:	14          	INC     D
1c7f:	13          	INC     DE
1c80:	14          	INC     D
1c81:	34          	INC     (HL)
1c82:	90          	SUB     B
1c83:	34          	INC     (HL)
1c84:	34          	INC     (HL)
1c85:	90          	SUB     B
1c86:	34          	INC     (HL)
1c87:	F4 F4 14    	CALL    P,14F4H
1c8a:	D3 14       	OUT     (14H),A
1c8c:	14          	INC     D
1c8d:	D3 14       	OUT     (14H),A
1c8f:	14          	INC     D
1c90:	13          	INC     DE
1c91:	D4 14 13    	CALL    NC,1314H
1c94:	D4 14 13    	CALL    NC,1314H
1c97:	14          	INC     D
1c98:	C0          	RET     NZ

1c99:	14          	INC     D
1c9a:	13          	INC     DE
1c9b:	14          	INC     D
1c9c:	C0          	RET     NZ

1c9d:	14          	INC     D
1c9e:	13          	INC     DE
1c9f:	14          	INC     D
1ca0:	C0          	RET     NZ

1ca1:	14          	INC     D
1ca2:	13          	INC     DE
1ca3:	14          	INC     D
1ca4:	C0          	RET     NZ

1ca5:	14          	INC     D
1ca6:	13          	INC     DE
1ca7:	14          	INC     D
1ca8:	C0          	RET     NZ

1ca9:	14          	INC     D
1caa:	13          	INC     DE
1cab:	14          	INC     D
1cac:	C0          	RET     NZ

1cad:	14          	INC     D
1cae:	13          	INC     DE
1caf:	14          	INC     D
1cb0:	C0          	RET     NZ

1cb1:	14          	INC     D
1cb2:	13          	INC     DE
1cb3:	14          	INC     D
1cb4:	C0          	RET     NZ

1cb5:	14          	INC     D
1cb6:	13          	INC     DE
1cb7:	14          	INC     D
1cb8:	C0          	RET     NZ

1cb9:	14          	INC     D
1cba:	13          	INC     DE
1cbb:	14          	INC     D
1cbc:	C0          	RET     NZ

1cbd:	14          	INC     D
1cbe:	13          	INC     DE
1cbf:	14          	INC     D
1cc0:	C0          	RET     NZ

1cc1:	14          	INC     D
1cc2:	13          	INC     DE
1cc3:	14          	INC     D
1cc4:	C0          	RET     NZ

1cc5:	34          	INC     (HL)
1cc6:	C0          	RET     NZ

1cc7:	34          	INC     (HL)
1cc8:	C0          	RET     NZ

1cc9:	28 A4       	JR      Z,0C6FH
1ccb:	28 18       	JR      Z,0CE5H
1ccd:	C4 18 10    	CALL    NZ,1018H
1cd0:	1C          	INC     E
1cd1:	A3          	AND     E
1cd2:	1C          	INC     E
1cd3:	10 08       	DJNZ    0CDDH
1cd5:	1C          	INC     E
1cd6:	B3          	OR      E
1cd7:	1C          	INC     E
1cd8:	08          	EX      AF,AF'
1cd9:	08          	EX      AF,AF'
1cda:	14          	INC     D
1cdb:	1B          	DEC     DE
1cdc:	94          	SUB     H
1cdd:	1B          	DEC     DE
1cde:	14          	INC     D
1cdf:	08          	EX      AF,AF'
1ce0:	14          	INC     D
1ce1:	1B          	DEC     DE
1ce2:	A4          	AND     H
1ce3:	1B          	DEC     DE
1ce4:	14          	INC     D
1ce5:	14          	INC     D
1ce6:	13          	INC     DE
1ce7:	1C          	INC     E
1ce8:	80          	ADD     A,B
1ce9:	1C          	INC     E
1cea:	13          	INC     DE
1ceb:	14          	INC     D
1cec:	14          	INC     D
1ced:	13          	INC     DE
1cee:	14          	INC     D
1cef:	90          	SUB     B
1cf0:	14          	INC     D
1cf1:	13          	INC     DE
1cf2:	14          	INC     D
1cf3:	14          	INC     D
1cf4:	13          	INC     DE
1cf5:	14          	INC     D
1cf6:	90          	SUB     B
1cf7:	14          	INC     D
1cf8:	13          	INC     DE
1cf9:	14          	INC     D
1cfa:	14          	INC     D
1cfb:	13          	INC     DE
1cfc:	14          	INC     D
1cfd:	90          	SUB     B
1cfe:	14          	INC     D
1cff:	13          	INC     DE
1d00:	14          	INC     D
1d01:	14          	INC     D
1d02:	13          	INC     DE
1d03:	14          	INC     D
1d04:	90          	SUB     B
1d05:	14          	INC     D
1d06:	13          	INC     DE
1d07:	14          	INC     D
1d08:	14          	INC     D
1d09:	13          	INC     DE
1d0a:	14          	INC     D
1d0b:	90          	SUB     B
1d0c:	14          	INC     D
1d0d:	13          	INC     DE
1d0e:	14          	INC     D
1d0f:	14          	INC     D
1d10:	13          	INC     DE
1d11:	14          	INC     D
1d12:	90          	SUB     B
1d13:	14          	INC     D
1d14:	13          	INC     DE
1d15:	14          	INC     D
1d16:	14          	INC     D
1d17:	13          	INC     DE
1d18:	1C          	INC     E
1d19:	80          	ADD     A,B
1d1a:	1C          	INC     E
1d1b:	13          	INC     DE
1d1c:	14          	INC     D
1d1d:	14          	INC     D
1d1e:	1B          	DEC     DE
1d1f:	A4          	AND     H
1d20:	1B          	DEC     DE
1d21:	14          	INC     D
1d22:	08          	EX      AF,AF'
1d23:	14          	INC     D
1d24:	1B          	DEC     DE
1d25:	94          	SUB     H
1d26:	1B          	DEC     DE
1d27:	14          	INC     D
1d28:	08          	EX      AF,AF'
1d29:	08          	EX      AF,AF'
1d2a:	1C          	INC     E
1d2b:	B3          	OR      E
1d2c:	1C          	INC     E
1d2d:	08          	EX      AF,AF'
1d2e:	10 1C       	DJNZ    0D4CH
1d30:	A3          	AND     E
1d31:	1C          	INC     E
1d32:	10 18       	DJNZ    0D4CH
1d34:	C4 18 28    	CALL    NZ,2818H
1d37:	A4          	AND     H
1d38:	28 C0       	JR      Z,0CFAH
1d3a:	34          	INC     (HL)
1d3b:	C0          	RET     NZ

1d3c:	34          	INC     (HL)
1d3d:	C0          	RET     NZ

1d3e:	14          	INC     D
1d3f:	13          	INC     DE
1d40:	14          	INC     D
1d41:	C0          	RET     NZ

1d42:	14          	INC     D
1d43:	13          	INC     DE
1d44:	14          	INC     D
1d45:	C0          	RET     NZ

1d46:	14          	INC     D
1d47:	13          	INC     DE
1d48:	14          	INC     D
1d49:	C0          	RET     NZ

1d4a:	14          	INC     D
1d4b:	13          	INC     DE
1d4c:	14          	INC     D
1d4d:	C0          	RET     NZ

1d4e:	14          	INC     D
1d4f:	13          	INC     DE
1d50:	14          	INC     D
1d51:	D4 13 14    	CALL    NC,1413H
1d54:	D4 13 14    	CALL    NC,1413H
1d57:	14          	INC     D
1d58:	D3 14       	OUT     (14H),A
1d5a:	14          	INC     D
1d5b:	D3 14       	OUT     (14H),A
1d5d:	D4 13 14    	CALL    NC,1413H
1d60:	D4 13 14    	CALL    NC,1413H
1d63:	C0          	RET     NZ

1d64:	14          	INC     D
1d65:	13          	INC     DE
1d66:	14          	INC     D
1d67:	C0          	RET     NZ

1d68:	14          	INC     D
1d69:	13          	INC     DE
1d6a:	14          	INC     D
1d6b:	C0          	RET     NZ

1d6c:	14          	INC     D
1d6d:	13          	INC     DE
1d6e:	14          	INC     D
1d6f:	C0          	RET     NZ

1d70:	14          	INC     D
1d71:	13          	INC     DE
1d72:	14          	INC     D
1d73:	C0          	RET     NZ

1d74:	14          	INC     D
1d75:	13          	INC     DE
1d76:	14          	INC     D
1d77:	C0          	RET     NZ

1d78:	34          	INC     (HL)
1d79:	C0          	RET     NZ

1d7a:	34          	INC     (HL)
1d7b:	F4 F4 14    	CALL    P,14F4H
1d7e:	D3 14       	OUT     (14H),A
1d80:	14          	INC     D
1d81:	D3 14       	OUT     (14H),A
1d83:	74          	LD      (HL),H
1d84:	13          	INC     DE
1d85:	74          	LD      (HL),H
1d86:	74          	LD      (HL),H
1d87:	13          	INC     DE
1d88:	74          	LD      (HL),H
1d89:	60          	LD      H,B
1d8a:	14          	INC     D
1d8b:	13          	INC     DE
1d8c:	14          	INC     D
1d8d:	60          	LD      H,B
1d8e:	60          	LD      H,B
1d8f:	14          	INC     D
1d90:	13          	INC     DE
1d91:	14          	INC     D
1d92:	60          	LD      H,B
1d93:	60          	LD      H,B
1d94:	14          	INC     D
1d95:	13          	INC     DE
1d96:	14          	INC     D
1d97:	60          	LD      H,B
1d98:	60          	LD      H,B
1d99:	14          	INC     D
1d9a:	13          	INC     DE
1d9b:	14          	INC     D
1d9c:	60          	LD      H,B
1d9d:	60          	LD      H,B
1d9e:	14          	INC     D
1d9f:	13          	INC     DE
1da0:	14          	INC     D
1da1:	60          	LD      H,B
1da2:	60          	LD      H,B
1da3:	14          	INC     D
1da4:	13          	INC     DE
1da5:	14          	INC     D
1da6:	60          	LD      H,B
1da7:	60          	LD      H,B
1da8:	14          	INC     D
1da9:	13          	INC     DE
1daa:	14          	INC     D
1dab:	60          	LD      H,B
1dac:	60          	LD      H,B
1dad:	14          	INC     D
1dae:	13          	INC     DE
1daf:	14          	INC     D
1db0:	60          	LD      H,B
1db1:	74          	LD      (HL),H
1db2:	13          	INC     DE
1db3:	74          	LD      (HL),H
1db4:	74          	LD      (HL),H
1db5:	13          	INC     DE
1db6:	74          	LD      (HL),H
1db7:	14          	INC     D
1db8:	D3 14       	OUT     (14H),A
1dba:	14          	INC     D
1dbb:	D3 14       	OUT     (14H),A
1dbd:	F4 F4 F4    	CALL    P,0F4F4H
1dc0:	F4 14 D3    	CALL    P,0D314H
1dc3:	14          	INC     D
1dc4:	14          	INC     D
1dc5:	D3 14       	OUT     (14H),A
1dc7:	14          	INC     D
1dc8:	13          	INC     DE
1dc9:	54          	LD      D,H
1dca:	13          	INC     DE
1dcb:	54          	LD      D,H
1dcc:	13          	INC     DE
1dcd:	14          	INC     D
1dce:	14          	INC     D
1dcf:	13          	INC     DE
1dd0:	54          	LD      D,H
1dd1:	13          	INC     DE
1dd2:	54          	LD      D,H
1dd3:	13          	INC     DE
1dd4:	14          	INC     D
1dd5:	14          	INC     D
1dd6:	13          	INC     DE
1dd7:	14          	INC     D
1dd8:	30 14       	JR      NC,0DEEH
1dda:	13          	INC     DE
1ddb:	14          	INC     D
1ddc:	30 14       	JR      NC,0DF2H
1dde:	13          	INC     DE
1ddf:	14          	INC     D
1de0:	14          	INC     D
1de1:	13          	INC     DE
1de2:	14          	INC     D
1de3:	30 14       	JR      NC,0DF9H
1de5:	13          	INC     DE
1de6:	14          	INC     D
1de7:	30 14       	JR      NC,0DFDH
1de9:	13          	INC     DE
1dea:	14          	INC     D
1deb:	14          	INC     D
1dec:	13          	INC     DE
1ded:	14          	INC     D
1dee:	30 14       	JR      NC,0E04H
1df0:	13          	INC     DE
1df1:	14          	INC     D
1df2:	30 14       	JR      NC,0E08H
1df4:	13          	INC     DE
1df5:	14          	INC     D
1df6:	14          	INC     D
1df7:	13          	INC     DE
1df8:	14          	INC     D
1df9:	30 14       	JR      NC,0E0FH
1dfb:	13          	INC     DE
1dfc:	14          	INC     D
1dfd:	30 14       	JR      NC,0E13H
1dff:	13          	INC     DE
1e00:	14          	INC     D
1e01:	14          	INC     D
1e02:	13          	INC     DE
1e03:	14          	INC     D
1e04:	30 14       	JR      NC,0E1AH
1e06:	13          	INC     DE
1e07:	14          	INC     D
1e08:	30 14       	JR      NC,0E1EH
1e0a:	13          	INC     DE
1e0b:	14          	INC     D
1e0c:	14          	INC     D
1e0d:	13          	INC     DE
1e0e:	14          	INC     D
1e0f:	30 14       	JR      NC,0E25H
1e11:	13          	INC     DE
1e12:	14          	INC     D
1e13:	30 14       	JR      NC,0E29H
1e15:	13          	INC     DE
1e16:	14          	INC     D
1e17:	14          	INC     D
1e18:	13          	INC     DE
1e19:	14          	INC     D
1e1a:	30 14       	JR      NC,0E30H
1e1c:	13          	INC     DE
1e1d:	14          	INC     D
1e1e:	30 14       	JR      NC,0E34H
1e20:	13          	INC     DE
1e21:	14          	INC     D
1e22:	14          	INC     D
1e23:	13          	INC     DE
1e24:	1C          	INC     E
1e25:	20 1C       	JR      NZ,0E43H
1e27:	13          	INC     DE
1e28:	1C          	INC     E
1e29:	20 1C       	JR      NZ,0E47H
1e2b:	13          	INC     DE
1e2c:	14          	INC     D
1e2d:	14          	INC     D
1e2e:	1B          	DEC     DE
1e2f:	44          	LD      B,H
1e30:	23          	INC     HL
1e31:	44          	LD      B,H
1e32:	1B          	DEC     DE
1e33:	14          	INC     D
1e34:	08          	EX      AF,AF'
1e35:	14          	INC     D
1e36:	1B          	DEC     DE
1e37:	34          	INC     (HL)
1e38:	33          	INC     SP
1e39:	34          	INC     (HL)
1e3a:	1B          	DEC     DE
1e3b:	14          	INC     D
1e3c:	08          	EX      AF,AF'
1e3d:	08          	EX      AF,AF'
1e3e:	1C          	INC     E
1e3f:	53          	LD      D,E
1e40:	14          	INC     D
1e41:	53          	LD      D,E
1e42:	1C          	INC     E
1e43:	08          	EX      AF,AF'
1e44:	10 1C       	DJNZ    0E62H
1e46:	43          	LD      B,E
1e47:	24          	INC     H
1e48:	43          	LD      B,E
1e49:	1C          	INC     E
1e4a:	10 18       	DJNZ    0E64H
1e4c:	5C          	LD      E,H
1e4d:	10 5C       	DJNZ    0EABH
1e4f:	18 28       	JR      0E79H
1e51:	44          	LD      B,H
1e52:	20 44       	JR      NZ,0E98H
1e54:	28 28       	JR      Z,0E7EH
1e56:	A4          	AND     H
1e57:	28 18       	JR      Z,0E71H
1e59:	C4 18 10    	CALL    NZ,1018H
1e5c:	1C          	INC     E
1e5d:	A3          	AND     E
1e5e:	1C          	INC     E
1e5f:	10 08       	DJNZ    0E69H
1e61:	1C          	INC     E
1e62:	B3          	OR      E
1e63:	1C          	INC     E
1e64:	08          	EX      AF,AF'
1e65:	08          	EX      AF,AF'
1e66:	14          	INC     D
1e67:	1B          	DEC     DE
1e68:	94          	SUB     H
1e69:	1B          	DEC     DE
1e6a:	14          	INC     D
1e6b:	08          	EX      AF,AF'
1e6c:	14          	INC     D
1e6d:	1B          	DEC     DE
1e6e:	A4          	AND     H
1e6f:	1B          	DEC     DE
1e70:	14          	INC     D
1e71:	14          	INC     D
1e72:	13          	INC     DE
1e73:	1C          	INC     E
1e74:	80          	ADD     A,B
1e75:	1C          	INC     E
1e76:	13          	INC     DE
1e77:	14          	INC     D
1e78:	14          	INC     D
1e79:	13          	INC     DE
1e7a:	14          	INC     D
1e7b:	90          	SUB     B
1e7c:	14          	INC     D
1e7d:	13          	INC     DE
1e7e:	14          	INC     D
1e7f:	14          	INC     D
1e80:	13          	INC     DE
1e81:	14          	INC     D
1e82:	90          	SUB     B
1e83:	14          	INC     D
1e84:	13          	INC     DE
1e85:	14          	INC     D
1e86:	14          	INC     D
1e87:	13          	INC     DE
1e88:	14          	INC     D
1e89:	90          	SUB     B
1e8a:	14          	INC     D
1e8b:	13          	INC     DE
1e8c:	14          	INC     D
1e8d:	14          	INC     D
1e8e:	13          	INC     DE
1e8f:	14          	INC     D
1e90:	20 34       	JR      NZ,0EC6H
1e92:	40          	LD      B,B
1e93:	14          	INC     D
1e94:	13          	INC     DE
1e95:	14          	INC     D
1e96:	14          	INC     D
1e97:	13          	INC     DE
1e98:	14          	INC     D
1e99:	20 34       	JR      NZ,0ECFH
1e9b:	40          	LD      B,B
1e9c:	14          	INC     D
1e9d:	13          	INC     DE
1e9e:	14          	INC     D
1e9f:	14          	INC     D
1ea0:	13          	INC     DE
1ea1:	14          	INC     D
1ea2:	20 14       	JR      NZ,0EB8H
1ea4:	13          	INC     DE
1ea5:	14          	INC     D
1ea6:	40          	LD      B,B
1ea7:	14          	INC     D
1ea8:	13          	INC     DE
1ea9:	14          	INC     D
1eaa:	14          	INC     D
1eab:	13          	INC     DE
1eac:	14          	INC     D
1ead:	20 14       	JR      NZ,0EC3H
1eaf:	13          	INC     DE
1eb0:	14          	INC     D
1eb1:	38 1C       	JR      C,0ECFH
1eb3:	13          	INC     DE
1eb4:	14          	INC     D
1eb5:	14          	INC     D
1eb6:	13          	INC     DE
1eb7:	44          	LD      B,H
1eb8:	13          	INC     DE
1eb9:	14          	INC     D
1eba:	30 1C       	JR      NC,0ED8H
1ebc:	1B          	DEC     DE
1ebd:	14          	INC     D
1ebe:	14          	INC     D
1ebf:	13          	INC     DE
1ec0:	44          	LD      B,H
1ec1:	13          	INC     DE
1ec2:	14          	INC     D
1ec3:	30 14       	JR      NC,0ED9H
1ec5:	1B          	DEC     DE
1ec6:	14          	INC     D
1ec7:	08          	EX      AF,AF'
1ec8:	14          	INC     D
1ec9:	63          	LD      H,E
1eca:	14          	INC     D
1ecb:	30 14       	JR      NC,0EE1H
1ecd:	13          	INC     DE
1ece:	1C          	INC     E
1ecf:	08          	EX      AF,AF'
1ed0:	14          	INC     D
1ed1:	63          	LD      H,E
1ed2:	14          	INC     D
1ed3:	30 14       	JR      NC,0EE9H
1ed5:	0B          	DEC     BC
1ed6:	1C          	INC     E
1ed7:	10 84       	DJNZ    0E5DH
1ed9:	30 2C       	JR      NC,0F07H
1edb:	18 84       	JR      0E61H
1edd:	30 1C       	JR      NC,0EFBH
1edf:	28 F5       	JR      Z,0ED6H
1ee1:	C5          	PUSH    BC
1ee2:	D5          	PUSH    DE
1ee3:	DD E5       	PUSH    IX
1ee5:	FD E5       	PUSH    IY
1ee7:	3E 05       	LD      A,05H
1ee9:	32 F2 7B    	LD      (7BF2H),A
1eec:	21 F7 15    	LD      HL,15F7H
1eef:	DD 21 40 95  	LD      IX,9540H
1ef3:	CD 03 13    	CALL    1303H
1ef6:	FD 21 09 1F  	LD      IY,1F09H
1efa:	DD 21 90 9A  	LD      IX,9A90H
1efe:	CD 93 12    	CALL    1293H
1f01:	FD E1       	POP     IY
1f03:	DD E1       	POP     IX
1f05:	D1          	POP     DE
1f06:	C1          	POP     BC
1f07:	F1          	POP     AF
1f08:	C9          	RET     

1f09:	17          	RLA     
1f0a:	FF          	RST     38H
1f0b:	09          	ADD     HL,BC
1f0c:	8C          	ADC     A,H
1f0d:	B4          	OR      H
1f0e:	AF          	XOR     A
1f0f:	96          	SUB     (HL)
1f10:	82          	ADD     A,D
1f11:	14          	INC     D
1f12:	4B          	LD      C,E
1f13:	46          	LD      B,(HL)
1f14:	5A          	LD      E,D
1f15:	82          	ADD     A,D
1f16:	0A          	LD      A,(BC)
1f17:	46          	LD      B,(HL)
1f18:	55          	LD      D,L
1f19:	4B          	LD      C,E
1f1a:	46          	LD      B,(HL)
1f1b:	55          	LD      D,L
1f1c:	00          	NOP     
1f1d:	5F          	LD      E,A
1f1e:	28 46       	JR      Z,0F66H
1f20:	41          	LD      B,C
1f21:	DB 00       	IN      A,(00H)
1f23:	CB 5F       	BIT     3,A
1f25:	16 02       	LD      D,02H
1f27:	28 02       	JR      Z,0F2BH
1f29:	16 10       	LD      D,10H
1f2b:	CD 47 08    	CALL    0847H
1f2e:	82          	ADD     A,D
1f2f:	27          	DAA     
1f30:	32 4D 7C    	LD      (7C4DH),A
1f33:	DB 00       	IN      A,(00H)
1f35:	CD 35 08    	CALL    0835H
1f38:	21 69 7D    	LD      HL,7D69H
1f3b:	77          	LD      (HL),A
1f3c:	97          	SUB     A
1f3d:	32 6D 7D    	LD      (7D6DH),A
1f40:	32 85 7D    	LD      (7D85H),A
1f43:	3C          	INC     A
1f44:	32 64 7D    	LD      (7D64H),A
1f47:	32 7F 7D    	LD      (7D7FH),A
1f4a:	32 80 7D    	LD      (7D80H),A
1f4d:	7E          	LD      A,(HL)
1f4e:	32 83 7D    	LD      (7D83H),A
1f51:	3A 66 7D    	LD      A,(7D66H)
1f54:	32 6A 7D    	LD      (7D6AH),A
1f57:	FE 01       	CP      01H
1f59:	28 04       	JR      Z,0F5FH
1f5b:	7E          	LD      A,(HL)
1f5c:	32 85 7D    	LD      (7D85H),A
1f5f:	97          	SUB     A
1f60:	06 0F       	LD      B,0FH
1f62:	21 88 7D    	LD      HL,7D88H
1f65:	77          	LD      (HL),A
1f66:	23          	INC     HL
1f67:	10 FC       	DJNZ    0F65H
1f69:	32 B4 7C    	LD      (7CB4H),A
1f6c:	3C          	INC     A
1f6d:	32 91 7D    	LD      (7D91H),A
1f70:	32 94 7D    	LD      (7D94H),A
1f73:	32 92 7D    	LD      (7D92H),A
1f76:	32 95 7D    	LD      (7D95H),A
1f79:	32 82 7D    	LD      (7D82H),A
1f7c:	32 84 7D    	LD      (7D84H),A
1f7f:	32 86 7D    	LD      (7D86H),A
1f82:	32 87 7D    	LD      (7D87H),A
1f85:	21 83 7D    	LD      HL,7D83H
1f88:	3A 64 7D    	LD      A,(7D64H)
1f8b:	FE 01       	CP      01H
1f8d:	28 02       	JR      Z,0F91H
1f8f:	23          	INC     HL
1f90:	23          	INC     HL
1f91:	35          	DEC     (HL)
1f92:	CD 0F 27    	CALL    270FH
1f95:	D3 00       	OUT     (00H),A
1f97:	CD FA 2B    	CALL    2BFAH
1f9a:	D3 00       	OUT     (00H),A
1f9c:	3A 6D 7D    	LD      A,(7D6DH)
1f9f:	FE 01       	CP      01H
1fa1:	28 30       	JR      Z,0FD3H
1fa3:	97          	SUB     A
1fa4:	CD 45 12    	CALL    1245H
1fa7:	3A 64 7D    	LD      A,(7D64H)
1faa:	01 87 7D    	LD      BC,7D87H
1fad:	21 94 7D    	LD      HL,7D94H
1fb0:	FE 01       	CP      01H
1fb2:	20 06       	JR      NZ,0FBAH
1fb4:	01 86 7D    	LD      BC,7D86H
1fb7:	21 91 7D    	LD      HL,7D91H
1fba:	34          	INC     (HL)
1fbb:	23          	INC     HL
1fbc:	7E          	LD      A,(HL)
1fbd:	C6 01       	ADD     A,01H
1fbf:	27          	DAA     
1fc0:	77          	LD      (HL),A
1fc1:	23          	INC     HL
1fc2:	7E          	LD      A,(HL)
1fc3:	CE 00       	ADC     A,00H
1fc5:	27          	DAA     
1fc6:	77          	LD      (HL),A
1fc7:	DB 00       	IN      A,(00H)
1fc9:	CD 47 08    	CALL    0847H
1fcc:	3C          	INC     A
1fcd:	57          	LD      D,A
1fce:	0A          	LD      A,(BC)
1fcf:	82          	ADD     A,D
1fd0:	02          	LD      (BC),A
1fd1:	18 BF       	JR      0F92H
1fd3:	97          	SUB     A
1fd4:	CD 45 12    	CALL    1245H
1fd7:	32 6D 7D    	LD      (7D6DH),A
1fda:	21 64 7D    	LD      HL,7D64H
1fdd:	3C          	INC     A
1fde:	BE          	CP      (HL)
1fdf:	11 83 7D    	LD      DE,7D83H
1fe2:	28 03       	JR      Z,0FE7H
1fe4:	11 85 7D    	LD      DE,7D85H
1fe7:	1A          	LD      A,(DE)
1fe8:	FE 00       	CP      00H
1fea:	28 4D       	JR      Z,1039H
1fec:	3A 6A 7D    	LD      A,(7D6AH)
1fef:	FE 02       	CP      02H
1ff1:	28 06       	JR      Z,0FF9H
1ff3:	97          	SUB     A
1ff4:	32 77 7D    	LD      (7D77H),A
1ff7:	18 7A       	JR      1073H
1ff9:	7E          	LD      A,(HL)
1ffa:	EE 03       	XOR     03H
1ffc:	77          	LD      (HL),A
1ffd:	97          	SUB     A
1ffe:	32 77 00    	LD      (0077H),A
2000:	7D          	LD      A,L
2001:	3E 05       	LD      A,05H
2003:	CD 53 0B    	CALL    0B53H
2006:	F5          	PUSH    AF
2007:	0E 12       	LD      C,12H
2009:	3E EE       	LD      A,0EEH
200b:	CD 21 12    	CALL    1221H
200e:	0E 15       	LD      C,15H
2010:	97          	SUB     A
2011:	CD 21 12    	CALL    1221H
2014:	FD 21 3F 21  	LD      IY,213FH
2018:	DD 21 78 A5  	LD      IX,0A578H
201c:	CD 98 12    	CALL    1298H
201f:	7E          	LD      A,(HL)
2020:	FD 21 3D 21  	LD      IY,213DH
2024:	DD 21 A0 CA  	LD      IX,0CAA0H
2028:	FE 02       	CP      02H
202a:	28 04       	JR      Z,0030H
202c:	FD 21 3B 21  	LD      IY,213BH
2030:	CD 98 12    	CALL    1298H
2033:	F1          	POP     AF
2034:	CD B8 11    	CALL    11B8H
2037:	18 3A       	JR      0073H
2039:	3A 6A 7D    	LD      A,(7D6AH)
203c:	3D          	DEC     A
203d:	32 6A 7D    	LD      (7D6AH),A
2040:	F5          	PUSH    AF
2041:	FD 21 27 21  	LD      IY,2127H
2045:	DD 21 78 A5  	LD      IX,0A578H
2049:	CD 98 12    	CALL    1298H
204c:	3E 01       	LD      A,01H
204e:	FD 21 3D 21  	LD      IY,213DH
2052:	BE          	CP      (HL)
2053:	C2 5A 20    	JP      NZ,205AH
2056:	FD 21 3B 21  	LD      IY,213BH
205a:	DD 21 A0 CA  	LD      IX,0CAA0H
205e:	CD 98 12    	CALL    1298H
2061:	3E 12       	LD      A,12H
2063:	CD 53 0B    	CALL    0B53H
2066:	CD B8 11    	CALL    11B8H
2069:	F1          	POP     AF
206a:	FE 01       	CP      01H
206c:	28 8B       	JR      Z,0FFF9H
206e:	3E 01       	LD      A,01H
2070:	32 77 7D    	LD      (7D77H),A
2073:	3A 77 7D    	LD      A,(7D77H)
2076:	FE 01       	CP      01H
2078:	C2 85 1F    	JP      NZ,1F85H
207b:	CD 2A 3E    	CALL    3E2AH
207e:	3A 65 7D    	LD      A,(7D65H)
2081:	FE 00       	CP      00H
2083:	CA 53 21    	JP      Z,2153H
2086:	97          	SUB     A
2087:	32 8C 7C    	LD      (7C8CH),A
208a:	3C          	INC     A
208b:	32 B5 7C    	LD      (7CB5H),A
208e:	21 65 7D    	LD      HL,7D65H
2091:	97          	SUB     A
2092:	32 78 7D    	LD      (7D78H),A
2095:	CD 45 12    	CALL    1245H
2098:	CD D2 1A    	CALL    1AD2H
209b:	FD 21 FF 20  	LD      IY,20FFH
209f:	DD 21 B0 B1  	LD      IX,0B1B0H
20a3:	CD 98 12    	CALL    1298H
20a6:	7E          	LD      A,(HL)
20a7:	FD 21 10 21  	LD      IY,2110H
20ab:	DD 21 B0 A9  	LD      IX,0A9B0H
20af:	FE 01       	CP      01H
20b1:	28 08       	JR      Z,00BBH
20b3:	FD 21 19 21  	LD      IY,2119H
20b7:	DD 21 C0 99  	LD      IX,99C0H
20bb:	CD 98 12    	CALL    1298H
20be:	DB 01       	IN      A,(01H)
20c0:	2F          	CPL     
20c1:	47          	LD      B,A
20c2:	CB 50       	BIT     2,B
20c4:	28 0C       	JR      Z,00D2H
20c6:	3E 01       	LD      A,01H
20c8:	32 66 7D    	LD      (7D66H),A
20cb:	7E          	LD      A,(HL)
20cc:	D6 01       	SUB     01H
20ce:	27          	DAA     
20cf:	77          	LD      (HL),A
20d0:	18 14       	JR      00E6H
20d2:	7E          	LD      A,(HL)
20d3:	FE 02       	CP      02H
20d5:	38 20       	JR      C,00F7H
20d7:	CB 58       	BIT     3,B
20d9:	CA F7 20    	JP      Z,20F7H
20dc:	3E 02       	LD      A,02H
20de:	32 66 7D    	LD      (7D66H),A
20e1:	7E          	LD      A,(HL)
20e2:	D6 02       	SUB     02H
20e4:	27          	DAA     
20e5:	77          	LD      (HL),A
20e6:	3A 66 7D    	LD      A,(7D66H)
20e9:	32 6C 7D    	LD      (7D6CH),A
20ec:	97          	SUB     A
20ed:	D3 01       	OUT     (01H),A
20ef:	3E 06       	LD      A,06H
20f1:	CD 53 0B    	CALL    0B53H
20f4:	C3 21 1F    	JP      1F21H
20f7:	D3 00       	OUT     (00H),A
20f9:	CD B8 17    	CALL    17B8H
20fc:	C3 A6 20    	JP      20A6H
20ff:	10 FF       	DJNZ    0100H
2101:	07          	RLCA    
2102:	10 12       	DJNZ    0116H
2104:	05          	DEC     B
2105:	13          	INC     DE
2106:	13          	INC     DE
2107:	FF          	RST     38H
2108:	80          	ADD     A,B
2109:	FF          	RST     38H
210a:	80          	ADD     A,B
210b:	13          	INC     DE
210c:	14          	INC     D
210d:	01 12 14    	LD      BC,1412H
2110:	08          	EX      AF,AF'
2111:	1C          	INC     E
2112:	00          	NOP     
2113:	10 0C       	DJNZ    0121H
2115:	01 19 05    	LD      BC,0519H
2118:	12          	LD      (DE),A
2119:	0D          	DEC     C
211a:	1C          	INC     E
211b:	00          	NOP     
211c:	0F          	RRCA    
211d:	12          	LD      (DE),A
211e:	00          	NOP     
211f:	1D          	DEC     E
2120:	00          	NOP     
2121:	10 0C       	DJNZ    012FH
2123:	01 19 05    	LD      BC,0519H
2126:	12          	LD      (DE),A
2127:	13          	INC     DE
2128:	FF          	RST     38H
2129:	01 07 01    	LD      BC,0107H
212c:	0D          	DEC     C
212d:	05          	DEC     B
212e:	00          	NOP     
212f:	0F          	RRCA    
2130:	16 05       	LD      D,05H
2132:	12          	LD      (DE),A
2133:	FF          	RST     38H
2134:	80          	ADD     A,B
2135:	10 0C       	DJNZ    0143H
2137:	01 19 05    	LD      BC,0519H
213a:	12          	LD      (DE),A
213b:	01 1C 01    	LD      BC,011CH
213e:	1D          	DEC     E
213f:	13          	INC     DE
2140:	FF          	RST     38H
2141:	07          	RLCA    
2142:	07          	RLCA    
2143:	05          	DEC     B
2144:	14          	INC     D
2145:	00          	NOP     
2146:	12          	LD      (DE),A
2147:	05          	DEC     B
2148:	01 04 19    	LD      BC,1904H
214b:	FF          	RST     38H
214c:	80          	ADD     A,B
214d:	10 0C       	DJNZ    015BH
214f:	01 19 05    	LD      BC,0519H
2152:	12          	LD      (DE),A
2153:	FB          	EI      
2154:	97          	SUB     A
2155:	CD 45 12    	CALL    1245H
2158:	3C          	INC     A
2159:	32 8C 7C    	LD      (7C8CH),A
215c:	DB 00       	IN      A,(00H)
215e:	CB 7F       	BIT     7,A
2160:	3E 01       	LD      A,01H
2162:	28 01       	JR      Z,0165H
2164:	97          	SUB     A
2165:	32 B5 7C    	LD      (7CB5H),A
2168:	3E 01       	LD      A,01H
216a:	32 B4 7C    	LD      (7CB4H),A
216d:	3E 18       	LD      A,18H
216f:	32 91 7D    	LD      (7D91H),A
2172:	3E 10       	LD      A,10H
2174:	32 86 7D    	LD      (7D86H),A
2177:	CD A8 21    	CALL    21A8H
217a:	32 B4 7C    	LD      (7CB4H),A
217d:	3C          	INC     A
217e:	32 91 7D    	LD      (7D91H),A
2181:	3E 11       	LD      A,11H
2183:	32 86 7D    	LD      (7D86H),A
2186:	CD A8 21    	CALL    21A8H
2189:	CD 16 42    	CALL    4216H
218c:	CD 46 25    	CALL    2546H
218f:	0E 08       	LD      C,08H
2191:	CD EA 11    	CALL    11EAH
2194:	97          	SUB     A
2195:	CD 45 12    	CALL    1245H
2198:	3E 08       	LD      A,08H
219a:	32 91 7D    	LD      (7D91H),A
219d:	3E 12       	LD      A,12H
219f:	32 86 7D    	LD      (7D86H),A
21a2:	CD A8 21    	CALL    21A8H
21a5:	C3 68 21    	JP      2168H
21a8:	3E 01       	LD      A,01H
21aa:	32 64 7D    	LD      (7D64H),A
21ad:	32 7F 7D    	LD      (7D7FH),A
21b0:	32 81 7D    	LD      (7D81H),A
21b3:	CD 0F 27    	CALL    270FH
21b6:	06 09       	LD      B,09H
21b8:	3E FF       	LD      A,0FFH
21ba:	32 65 79    	LD      (7965H),A
21bd:	F5          	PUSH    AF
21be:	97          	SUB     A
21bf:	CD D7 21    	CALL    21D7H
21c2:	F1          	POP     AF
21c3:	3C          	INC     A
21c4:	10 F4       	DJNZ    01BAH
21c6:	CD D2 1A    	CALL    1AD2H
21c9:	CD E0 1E    	CALL    1EE0H
21cc:	CD AB 18    	CALL    18ABH
21cf:	CD FA 2B    	CALL    2BFAH
21d2:	97          	SUB     A
21d3:	CD 45 12    	CALL    1245H
21d6:	C9          	RET     

21d7:	F5          	PUSH    AF
21d8:	C5          	PUSH    BC
21d9:	D5          	PUSH    DE
21da:	E5          	PUSH    HL
21db:	4F          	LD      C,A
21dc:	97          	SUB     A
21dd:	32 B3 7C    	LD      (7CB3H),A
21e0:	3A 65 79    	LD      A,(7965H)
21e3:	3C          	INC     A
21e4:	16 00       	LD      D,00H
21e6:	5F          	LD      E,A
21e7:	21 A8 7C    	LD      HL,7CA8H
21ea:	19          	ADD     HL,DE
21eb:	E5          	PUSH    HL
21ec:	21 8D 7C    	LD      HL,7C8DH
21ef:	19          	ADD     HL,DE
21f0:	E5          	PUSH    HL
21f1:	CB 03       	RLC     E
21f3:	21 96 7C    	LD      HL,7C96H
21f6:	19          	ADD     HL,DE
21f7:	E5          	PUSH    HL
21f8:	79          	LD      A,C
21f9:	FE 01       	CP      01H
21fb:	28 2A       	JR      Z,0227H
21fd:	3A 91 7D    	LD      A,(7D91H)
2200:	FE 18       	CP      18H
2202:	21 5D 22    	LD      HL,225DH
2205:	28 0A       	JR      Z,0211H
2207:	FE 01       	CP      01H
2209:	21 6F 22    	LD      HL,226FH
220c:	28 03       	JR      Z,0211H
220e:	21 81 22    	LD      HL,2281H
2211:	19          	ADD     HL,DE
2212:	4E          	LD      C,(HL)
2213:	23          	INC     HL
2214:	46          	LD      B,(HL)
2215:	E1          	POP     HL
2216:	71          	LD      (HL),C
2217:	23          	INC     HL
2218:	70          	LD      (HL),B
2219:	E1          	POP     HL
221a:	36 00       	LD      (HL),00H
221c:	C1          	POP     BC
221d:	3A B3 7C    	LD      A,(7CB3H)
2220:	FE 01       	CP      01H
2222:	20 28       	JR      NZ,024CH
2224:	4F          	LD      C,A
2225:	18 B9       	JR      01E0H
2227:	E1          	POP     HL
2228:	22 B1 7C    	LD      (7CB1H),HL
222b:	5E          	LD      E,(HL)
222c:	23          	INC     HL
222d:	56          	LD      D,(HL)
222e:	E1          	POP     HL
222f:	C1          	POP     BC
2230:	7E          	LD      A,(HL)
2231:	FE 00       	CP      00H
2233:	20 12       	JR      NZ,0247H
2235:	1A          	LD      A,(DE)
2236:	FE FF       	CP      0FFH
2238:	28 1A       	JR      Z,0254H
223a:	77          	LD      (HL),A
223b:	13          	INC     DE
223c:	1A          	LD      A,(DE)
223d:	02          	LD      (BC),A
223e:	13          	INC     DE
223f:	E5          	PUSH    HL
2240:	2A B1 7C    	LD      HL,(7CB1H)
2243:	73          	LD      (HL),E
2244:	23          	INC     HL
2245:	72          	LD      (HL),D
2246:	E1          	POP     HL
2247:	35          	DEC     (HL)
2248:	0A          	LD      A,(BC)
2249:	32 B3 7C    	LD      (7CB3H),A
224c:	CD 03 12    	CALL    1203H
224f:	E1          	POP     HL
2250:	D1          	POP     DE
2251:	C1          	POP     BC
2252:	F1          	POP     AF
2253:	C9          	RET     

2254:	3E 01       	LD      A,01H
2256:	32 B3 7C    	LD      (7CB3H),A
2259:	0E 00       	LD      C,00H
225b:	18 83       	JR      01E0H
225d:	93          	SUB     E
225e:	22 BC 22    	LD      (22BCH),HL
2261:	C1          	POP     BC
2262:	22 D0 22    	LD      (22D0H),HL
2265:	DF          	RST     18H
2266:	22 F6 22    	LD      (22F6H),HL
2269:	0D          	DEC     C
226a:	23          	INC     HL
226b:	16 23       	LD      D,23H
226d:	1B          	DEC     DE
226e:	23          	INC     HL
226f:	26 23       	LD      H,23H
2271:	8D          	ADC     A,L
2272:	23          	INC     HL
2273:	9C          	SBC     A,H
2274:	23          	INC     HL
2275:	B5          	OR      L
2276:	23          	INC     HL
2277:	C2 23 F7    	JP      NZ,0F723H
227a:	23          	INC     HL
227b:	16 24       	LD      D,24H
227d:	1B          	DEC     DE
227e:	24          	INC     H
227f:	56          	LD      D,(HL)
2280:	24          	INC     H
2281:	67          	LD      H,A
2282:	24          	INC     H
2283:	C0          	RET     NZ

2284:	24          	INC     H
2285:	CB 24       	SLA     H
2287:	D2 24 EF    	JP      NC,0EF24H
228a:	24          	INC     H
228b:	0C          	INC     C
228c:	25          	DEC     H
228d:	21 25 30    	LD      HL,3025H
2290:	25          	DEC     H
2291:	41          	LD      B,C
2292:	25          	DEC     H
2293:	19          	ADD     HL,DE
2294:	80          	ADD     A,B
2295:	08          	EX      AF,AF'
2296:	85          	ADD     A,L
2297:	07          	RLCA    
2298:	84          	ADD     A,H
2299:	04          	INC     B
229a:	80          	ADD     A,B
229b:	04          	INC     B
229c:	88          	ADC     A,B
229d:	03          	INC     BC
229e:	80          	ADD     A,B
229f:	01 84 18    	LD      BC,1884H
22a2:	87          	ADD     A,A
22a3:	02          	LD      (BC),A
22a4:	80          	ADD     A,B
22a5:	02          	LD      (BC),A
22a6:	85          	ADD     A,L
22a7:	0B          	DEC     BC
22a8:	90          	SUB     B
22a9:	11 80 0A    	LD      DE,0A80H
22ac:	90          	SUB     B
22ad:	20 80       	JR      NZ,022FH
22af:	0C          	INC     C
22b0:	90          	SUB     B
22b1:	16 80       	LD      D,80H
22b3:	0E 90       	LD      C,90H
22b5:	1D          	DEC     E
22b6:	80          	ADD     A,B
22b7:	0C          	INC     C
22b8:	90          	SUB     B
22b9:	64          	LD      H,H
22ba:	80          	ADD     A,B
22bb:	FF          	RST     38H
22bc:	07          	RLCA    
22bd:	84          	ADD     A,H
22be:	64          	LD      H,H
22bf:	80          	ADD     A,B
22c0:	FF          	RST     38H
22c1:	01 85 04    	LD      BC,0485H
22c4:	88          	ADC     A,B
22c5:	02          	LD      (BC),A
22c6:	80          	ADD     A,B
22c7:	08          	EX      AF,AF'
22c8:	84          	ADD     A,H
22c9:	02          	LD      (BC),A
22ca:	80          	ADD     A,B
22cb:	02          	LD      (BC),A
22cc:	88          	ADC     A,B
22cd:	64          	LD      H,H
22ce:	80          	ADD     A,B
22cf:	FF          	RST     38H
22d0:	08          	EX      AF,AF'
22d1:	87          	ADD     A,A
22d2:	02          	LD      (BC),A
22d3:	80          	ADD     A,B
22d4:	03          	INC     BC
22d5:	84          	ADD     A,H
22d6:	08          	EX      AF,AF'
22d7:	86          	ADD     A,(HL)
22d8:	02          	LD      (BC),A
22d9:	80          	ADD     A,B
22da:	04          	INC     B
22db:	84          	ADD     A,H
22dc:	64          	LD      H,H
22dd:	80          	ADD     A,B
22de:	FF          	RST     38H
22df:	01 85 02    	LD      BC,0285H
22e2:	88          	ADC     A,B
22e3:	04          	INC     B
22e4:	80          	ADD     A,B
22e5:	01 84 08    	LD      BC,0884H
22e8:	87          	ADD     A,A
22e9:	08          	EX      AF,AF'
22ea:	86          	ADD     A,(HL)
22eb:	02          	LD      (BC),A
22ec:	80          	ADD     A,B
22ed:	04          	INC     B
22ee:	84          	ADD     A,H
22ef:	02          	LD      (BC),A
22f0:	80          	ADD     A,B
22f1:	03          	INC     BC
22f2:	84          	ADD     A,H
22f3:	64          	LD      H,H
22f4:	80          	ADD     A,B
22f5:	FF          	RST     38H
22f6:	08          	EX      AF,AF'
22f7:	87          	ADD     A,A
22f8:	02          	LD      (BC),A
22f9:	80          	ADD     A,B
22fa:	04          	INC     B
22fb:	84          	ADD     A,H
22fc:	04          	INC     B
22fd:	88          	ADC     A,B
22fe:	04          	INC     B
22ff:	80          	ADD     A,B
2300:	01 85 02    	LD      BC,0285H
2303:	80          	ADD     A,B
2304:	08          	EX      AF,AF'
2305:	86          	ADD     A,(HL)
2306:	02          	LD      (BC),A
2307:	80          	ADD     A,B
2308:	0F          	RRCA    
2309:	84          	ADD     A,H
230a:	0F          	RRCA    
230b:	85          	ADD     A,L
230c:	FF          	RST     38H
230d:	0A          	LD      A,(BC)
230e:	85          	ADD     A,L
230f:	0A          	LD      A,(BC)
2310:	88          	ADC     A,B
2311:	0A          	LD      A,(BC)
2312:	85          	ADD     A,L
2313:	FA 88 FF    	JP      M,0FF88H
2316:	10 84       	DJNZ    029CH
2318:	FA 80 FF    	JP      M,0FF80H
231b:	02          	LD      (BC),A
231c:	85          	ADD     A,L
231d:	02          	LD      (BC),A
231e:	84          	ADD     A,H
231f:	02          	LD      (BC),A
2320:	85          	ADD     A,L
2321:	02          	LD      (BC),A
2322:	84          	ADD     A,H
2323:	FA 80 FF    	JP      M,0FF80H
2326:	0A          	LD      A,(BC)
2327:	80          	ADD     A,B
2328:	02          	LD      (BC),A
2329:	85          	ADD     A,L
232a:	03          	INC     BC
232b:	84          	ADD     A,H
232c:	03          	INC     BC
232d:	80          	ADD     A,B
232e:	05          	DEC     B
232f:	85          	ADD     A,L
2330:	0A          	LD      A,(BC)
2331:	90          	SUB     B
2332:	02          	LD      (BC),A
2333:	80          	ADD     A,B
2334:	04          	INC     B
2335:	85          	ADD     A,L
2336:	04          	INC     B
2337:	88          	ADC     A,B
2338:	06 85       	LD      B,85H
233a:	01 80 06    	LD      BC,0680H
233d:	90          	SUB     B
233e:	03          	INC     BC
233f:	80          	ADD     A,B
2340:	07          	RLCA    
2341:	84          	ADD     A,H
2342:	07          	RLCA    
2343:	87          	ADD     A,A
2344:	09          	ADD     HL,BC
2345:	84          	ADD     A,H
2346:	04          	INC     B
2347:	88          	ADC     A,B
2348:	0A          	LD      A,(BC)
2349:	80          	ADD     A,B
234a:	01 85 07    	LD      BC,0785H
234d:	87          	ADD     A,A
234e:	03          	INC     BC
234f:	84          	ADD     A,H
2350:	02          	LD      (BC),A
2351:	85          	ADD     A,L
2352:	07          	RLCA    
2353:	87          	ADD     A,A
2354:	03          	INC     BC
2355:	84          	ADD     A,H
2356:	02          	LD      (BC),A
2357:	85          	ADD     A,L
2358:	07          	RLCA    
2359:	87          	ADD     A,A
235a:	03          	INC     BC
235b:	84          	ADD     A,H
235c:	02          	LD      (BC),A
235d:	85          	ADD     A,L
235e:	07          	RLCA    
235f:	87          	ADD     A,A
2360:	03          	INC     BC
2361:	85          	ADD     A,L
2362:	0A          	LD      A,(BC)
2363:	90          	SUB     B
2364:	02          	LD      (BC),A
2365:	85          	ADD     A,L
2366:	08          	EX      AF,AF'
2367:	88          	ADC     A,B
2368:	0A          	LD      A,(BC)
2369:	80          	ADD     A,B
236a:	01 85 08    	LD      BC,0885H
236d:	86          	ADD     A,(HL)
236e:	03          	INC     BC
236f:	87          	ADD     A,A
2370:	02          	LD      (BC),A
2371:	86          	ADD     A,(HL)
2372:	04          	INC     B
2373:	87          	ADD     A,A
2374:	03          	INC     BC
2375:	86          	ADD     A,(HL)
2376:	05          	DEC     B
2377:	87          	ADD     A,A
2378:	08          	EX      AF,AF'
2379:	86          	ADD     A,(HL)
237a:	02          	LD      (BC),A
237b:	85          	ADD     A,L
237c:	02          	LD      (BC),A
237d:	84          	ADD     A,H
237e:	02          	LD      (BC),A
237f:	85          	ADD     A,L
2380:	06 80       	LD      B,80H
2382:	0A          	LD      A,(BC)
2383:	90          	SUB     B
2384:	02          	LD      (BC),A
2385:	85          	ADD     A,L
2386:	0F          	RRCA    
2387:	86          	ADD     A,(HL)
2388:	07          	RLCA    
2389:	80          	ADD     A,B
238a:	03          	INC     BC
238b:	85          	ADD     A,L
238c:	FF          	RST     38H
238d:	01 80 08    	LD      BC,0880H
2390:	84          	ADD     A,H
2391:	02          	LD      (BC),A
2392:	80          	ADD     A,B
2393:	05          	DEC     B
2394:	85          	ADD     A,L
2395:	04          	INC     B
2396:	84          	ADD     A,H
2397:	0A          	LD      A,(BC)
2398:	80          	ADD     A,B
2399:	05          	DEC     B
239a:	85          	ADD     A,L
239b:	FF          	RST     38H
239c:	0D          	DEC     C
239d:	85          	ADD     A,L
239e:	0A          	LD      A,(BC)
239f:	80          	ADD     A,B
23a0:	0E 84       	LD      C,84H
23a2:	0A          	LD      A,(BC)
23a3:	80          	ADD     A,B
23a4:	06 85       	LD      B,85H
23a6:	07          	RLCA    
23a7:	84          	ADD     A,H
23a8:	02          	LD      (BC),A
23a9:	80          	ADD     A,B
23aa:	05          	DEC     B
23ab:	85          	ADD     A,L
23ac:	06 84       	LD      B,84H
23ae:	10 80       	DJNZ    0330H
23b0:	04          	INC     B
23b1:	85          	ADD     A,L
23b2:	32 80 FF    	LD      (0FF80H),A
23b5:	04          	INC     B
23b6:	85          	ADD     A,L
23b7:	04          	INC     B
23b8:	88          	ADC     A,B
23b9:	02          	LD      (BC),A
23ba:	80          	ADD     A,B
23bb:	02          	LD      (BC),A
23bc:	84          	ADD     A,H
23bd:	04          	INC     B
23be:	88          	ADC     A,B
23bf:	02          	LD      (BC),A
23c0:	85          	ADD     A,L
23c1:	FF          	RST     38H
23c2:	0A          	LD      A,(BC)
23c3:	80          	ADD     A,B
23c4:	02          	LD      (BC),A
23c5:	85          	ADD     A,L
23c6:	04          	INC     B
23c7:	88          	ADC     A,B
23c8:	01 80 01    	LD      BC,0180H
23cb:	85          	ADD     A,L
23cc:	1F          	RRA     
23cd:	86          	ADD     A,(HL)
23ce:	09          	ADD     HL,BC
23cf:	85          	ADD     A,L
23d0:	0A          	LD      A,(BC)
23d1:	80          	ADD     A,B
23d2:	0C          	INC     C
23d3:	84          	ADD     A,H
23d4:	04          	INC     B
23d5:	88          	ADC     A,B
23d6:	09          	ADD     HL,BC
23d7:	80          	ADD     A,B
23d8:	01 84 17    	LD      BC,1784H
23db:	87          	ADD     A,A
23dc:	04          	INC     B
23dd:	85          	ADD     A,L
23de:	04          	INC     B
23df:	88          	ADC     A,B
23e0:	01 80 01    	LD      BC,0180H
23e3:	85          	ADD     A,L
23e4:	07          	RLCA    
23e5:	87          	ADD     A,A
23e6:	07          	RLCA    
23e7:	85          	ADD     A,L
23e8:	04          	INC     B
23e9:	88          	ADC     A,B
23ea:	04          	INC     B
23eb:	80          	ADD     A,B
23ec:	01 85 01    	LD      BC,0185H
23ef:	80          	ADD     A,B
23f0:	03          	INC     BC
23f1:	87          	ADD     A,A
23f2:	1A          	LD      A,(DE)
23f3:	86          	ADD     A,(HL)
23f4:	03          	INC     BC
23f5:	85          	ADD     A,L
23f6:	FF          	RST     38H
23f7:	03          	INC     BC
23f8:	84          	ADD     A,H
23f9:	09          	ADD     HL,BC
23fa:	85          	ADD     A,L
23fb:	04          	INC     B
23fc:	88          	ADC     A,B
23fd:	02          	LD      (BC),A
23fe:	80          	ADD     A,B
23ff:	02          	LD      (BC),A
2400:	85          	ADD     A,L
2401:	04          	INC     B
2402:	88          	ADC     A,B
2403:	02          	LD      (BC),A
2404:	80          	ADD     A,B
2405:	02          	LD      (BC),A
2406:	84          	ADD     A,H
2407:	0A          	LD      A,(BC)
2408:	80          	ADD     A,B
2409:	04          	INC     B
240a:	88          	ADC     A,B
240b:	03          	INC     BC
240c:	85          	ADD     A,L
240d:	04          	INC     B
240e:	88          	ADC     A,B
240f:	03          	INC     BC
2410:	84          	ADD     A,H
2411:	02          	LD      (BC),A
2412:	80          	ADD     A,B
2413:	01 85 FF    	LD      BC,0FF85H
2416:	05          	DEC     B
2417:	84          	ADD     A,H
2418:	05          	DEC     B
2419:	85          	ADD     A,L
241a:	FF          	RST     38H
241b:	19          	ADD     HL,DE
241c:	80          	ADD     A,B
241d:	01 84 0F    	LD      BC,0F84H
2420:	80          	ADD     A,B
2421:	04          	INC     B
2422:	88          	ADC     A,B
2423:	0A          	LD      A,(BC)
2424:	80          	ADD     A,B
2425:	01 85 07    	LD      BC,0785H
2428:	87          	ADD     A,A
2429:	04          	INC     B
242a:	80          	ADD     A,B
242b:	02          	LD      (BC),A
242c:	85          	ADD     A,L
242d:	04          	INC     B
242e:	88          	ADC     A,B
242f:	02          	LD      (BC),A
2430:	80          	ADD     A,B
2431:	04          	INC     B
2432:	84          	ADD     A,H
2433:	04          	INC     B
2434:	88          	ADC     A,B
2435:	02          	LD      (BC),A
2436:	80          	ADD     A,B
2437:	01 84 08    	LD      BC,0884H
243a:	87          	ADD     A,A
243b:	04          	INC     B
243c:	85          	ADD     A,L
243d:	04          	INC     B
243e:	80          	ADD     A,B
243f:	03          	INC     BC
2440:	84          	ADD     A,H
2441:	02          	LD      (BC),A
2442:	80          	ADD     A,B
2443:	07          	RLCA    
2444:	87          	ADD     A,A
2445:	03          	INC     BC
2446:	84          	ADD     A,H
2447:	03          	INC     BC
2448:	85          	ADD     A,L
2449:	17          	RLA     
244a:	80          	ADD     A,B
244b:	04          	INC     B
244c:	86          	ADD     A,(HL)
244d:	04          	INC     B
244e:	87          	ADD     A,A
244f:	05          	DEC     B
2450:	80          	ADD     A,B
2451:	07          	RLCA    
2452:	86          	ADD     A,(HL)
2453:	06 84       	LD      B,84H
2455:	FF          	RST     38H
2456:	14          	INC     D
2457:	80          	ADD     A,B
2458:	04          	INC     B
2459:	84          	ADD     A,H
245a:	04          	INC     B
245b:	88          	ADC     A,B
245c:	03          	INC     BC
245d:	85          	ADD     A,L
245e:	03          	INC     BC
245f:	84          	ADD     A,H
2460:	07          	RLCA    
2461:	87          	ADD     A,A
2462:	0F          	RRCA    
2463:	85          	ADD     A,L
2464:	04          	INC     B
2465:	88          	ADC     A,B
2466:	FF          	RST     38H
2467:	0C          	INC     C
2468:	80          	ADD     A,B
2469:	06 85       	LD      B,85H
246b:	0C          	INC     C
246c:	90          	SUB     B
246d:	02          	LD      (BC),A
246e:	80          	ADD     A,B
246f:	06 85       	LD      B,85H
2471:	06 88       	LD      B,88H
2473:	0C          	INC     C
2474:	80          	ADD     A,B
2475:	01 85 06    	LD      BC,0685H
2478:	80          	ADD     A,B
2479:	01 85 06    	LD      BC,0685H
247c:	80          	ADD     A,B
247d:	04          	INC     B
247e:	88          	ADC     A,B
247f:	0A          	LD      A,(BC)
2480:	80          	ADD     A,B
2481:	02          	LD      (BC),A
2482:	90          	SUB     B
2483:	02          	LD      (BC),A
2484:	84          	ADD     A,H
2485:	27          	DAA     
2486:	87          	ADD     A,A
2487:	03          	INC     BC
2488:	84          	ADD     A,H
2489:	03          	INC     BC
248a:	85          	ADD     A,L
248b:	05          	DEC     B
248c:	80          	ADD     A,B
248d:	04          	INC     B
248e:	88          	ADC     A,B
248f:	08          	EX      AF,AF'
2490:	80          	ADD     A,B
2491:	04          	INC     B
2492:	88          	ADC     A,B
2493:	08          	EX      AF,AF'
2494:	80          	ADD     A,B
2495:	01 84 10    	LD      BC,1084H
2498:	86          	ADD     A,(HL)
2499:	03          	INC     BC
249a:	85          	ADD     A,L
249b:	01 80 08    	LD      BC,0880H
249e:	84          	ADD     A,H
249f:	06 90       	LD      B,90H
24a1:	04          	INC     B
24a2:	80          	ADD     A,B
24a3:	02          	LD      (BC),A
24a4:	85          	ADD     A,L
24a5:	0A          	LD      A,(BC)
24a6:	90          	SUB     B
24a7:	02          	LD      (BC),A
24a8:	80          	ADD     A,B
24a9:	08          	EX      AF,AF'
24aa:	84          	ADD     A,H
24ab:	05          	DEC     B
24ac:	80          	ADD     A,B
24ad:	07          	RLCA    
24ae:	85          	ADD     A,L
24af:	01 80 04    	LD      BC,0480H
24b2:	90          	SUB     B
24b3:	03          	INC     BC
24b4:	80          	ADD     A,B
24b5:	04          	INC     B
24b6:	90          	SUB     B
24b7:	02          	LD      (BC),A
24b8:	80          	ADD     A,B
24b9:	03          	INC     BC
24ba:	85          	ADD     A,L
24bb:	02          	LD      (BC),A
24bc:	90          	SUB     B
24bd:	64          	LD      H,H
24be:	80          	ADD     A,B
24bf:	FF          	RST     38H
24c0:	02          	LD      (BC),A
24c1:	85          	ADD     A,L
24c2:	02          	LD      (BC),A
24c3:	80          	ADD     A,B
24c4:	03          	INC     BC
24c5:	84          	ADD     A,H
24c6:	02          	LD      (BC),A
24c7:	80          	ADD     A,B
24c8:	08          	EX      AF,AF'
24c9:	85          	ADD     A,L
24ca:	FF          	RST     38H
24cb:	06 85       	LD      B,85H
24cd:	14          	INC     D
24ce:	80          	ADD     A,B
24cf:	64          	LD      H,H
24d0:	80          	ADD     A,B
24d1:	FF          	RST     38H
24d2:	19          	ADD     HL,DE
24d3:	80          	ADD     A,B
24d4:	05          	DEC     B
24d5:	85          	ADD     A,L
24d6:	1B          	DEC     DE
24d7:	80          	ADD     A,B
24d8:	02          	LD      (BC),A
24d9:	88          	ADC     A,B
24da:	1E 80       	LD      E,80H
24dc:	08          	EX      AF,AF'
24dd:	88          	ADC     A,B
24de:	03          	INC     BC
24df:	80          	ADD     A,B
24e0:	07          	RLCA    
24e1:	87          	ADD     A,A
24e2:	08          	EX      AF,AF'
24e3:	84          	ADD     A,H
24e4:	14          	INC     D
24e5:	80          	ADD     A,B
24e6:	06 85       	LD      B,85H
24e8:	03          	INC     BC
24e9:	84          	ADD     A,H
24ea:	01 80 0A    	LD      BC,0A80H
24ed:	84          	ADD     A,H
24ee:	FF          	RST     38H
24ef:	20 80       	JR      NZ,0471H
24f1:	05          	DEC     B
24f2:	85          	ADD     A,L
24f3:	10 80       	DJNZ    0475H
24f5:	04          	INC     B
24f6:	84          	ADD     A,H
24f7:	05          	DEC     B
24f8:	85          	ADD     A,L
24f9:	0A          	LD      A,(BC)
24fa:	80          	ADD     A,B
24fb:	0C          	INC     C
24fc:	84          	ADD     A,H
24fd:	07          	RLCA    
24fe:	85          	ADD     A,L
24ff:	06 80       	LD      B,80H
2501:	03          	INC     BC
2502:	85          	ADD     A,L
2503:	02          	LD      (BC),A
2504:	84          	ADD     A,H
2505:	02          	LD      (BC),A
2506:	85          	ADD     A,L
2507:	03          	INC     BC
2508:	84          	ADD     A,H
2509:	0A          	LD      A,(BC)
250a:	80          	ADD     A,B
250b:	FF          	RST     38H
250c:	04          	INC     B
250d:	84          	ADD     A,H
250e:	05          	DEC     B
250f:	88          	ADC     A,B
2510:	02          	LD      (BC),A
2511:	80          	ADD     A,B
2512:	04          	INC     B
2513:	85          	ADD     A,L
2514:	05          	DEC     B
2515:	88          	ADC     A,B
2516:	02          	LD      (BC),A
2517:	80          	ADD     A,B
2518:	02          	LD      (BC),A
2519:	85          	ADD     A,L
251a:	04          	INC     B
251b:	88          	ADC     A,B
251c:	02          	LD      (BC),A
251d:	80          	ADD     A,B
251e:	05          	DEC     B
251f:	84          	ADD     A,H
2520:	FF          	RST     38H
2521:	03          	INC     BC
2522:	84          	ADD     A,H
2523:	04          	INC     B
2524:	85          	ADD     A,L
2525:	04          	INC     B
2526:	84          	ADD     A,H
2527:	0D          	DEC     C
2528:	85          	ADD     A,L
2529:	07          	RLCA    
252a:	86          	ADD     A,(HL)
252b:	05          	DEC     B
252c:	84          	ADD     A,H
252d:	0A          	LD      A,(BC)
252e:	80          	ADD     A,B
252f:	FF          	RST     38H
2530:	0A          	LD      A,(BC)
2531:	80          	ADD     A,B
2532:	01 84 02    	LD      BC,0284H
2535:	85          	ADD     A,L
2536:	05          	DEC     B
2537:	80          	ADD     A,B
2538:	01 84 03    	LD      BC,0384H
253b:	85          	ADD     A,L
253c:	02          	LD      (BC),A
253d:	80          	ADD     A,B
253e:	01 84 FF    	LD      BC,0FF84H
2541:	04          	INC     B
2542:	84          	ADD     A,H
2543:	04          	INC     B
2544:	85          	ADD     A,L
2545:	FF          	RST     38H
2546:	F5          	PUSH    AF
2547:	C5          	PUSH    BC
2548:	DD E5       	PUSH    IX
254a:	FD E5       	PUSH    IY
254c:	DD 21 91 99  	LD      IX,9991H
2550:	FD 21 7C 25  	LD      IY,257CH
2554:	CD 93 12    	CALL    1293H
2557:	DD 21 A1 CD  	LD      IX,0CDA1H
255b:	3E 01       	LD      A,01H
255d:	32 80 7C    	LD      (7C80H),A
2560:	DB 00       	IN      A,(00H)
2562:	CB 5F       	BIT     3,A
2564:	16 02       	LD      D,02H
2566:	28 02       	JR      Z,056AH
2568:	16 10       	LD      D,10H
256a:	CD 47 08    	CALL    0847H
256d:	82          	ADD     A,D
256e:	27          	DAA     
256f:	CD B4 10    	CALL    10B4H
2572:	CD F5 10    	CALL    10F5H
2575:	FD E1       	POP     IY
2577:	DD E1       	POP     IX
2579:	C1          	POP     BC
257a:	F1          	POP     AF
257b:	C9          	RET     

257c:	16 FF       	LD      D,0FFH
257e:	08          	EX      AF,AF'
257f:	05          	DEC     B
2580:	46          	LD      B,(HL)
2581:	41          	LD      B,C
2582:	64          	LD      H,H
2583:	5A          	LD      E,D
2584:	82          	ADD     A,D
2585:	1E 37       	LD      E,37H
2587:	46          	LD      B,(HL)
2588:	05          	DEC     B
2589:	82          	ADD     A,D
258a:	00          	NOP     
258b:	5F          	LD      E,A
258c:	82          	ADD     A,D
258d:	82          	ADD     A,D
258e:	82          	ADD     A,D
258f:	87          	ADD     A,A
2590:	87          	ADD     A,A
2591:	87          	ADD     A,A
2592:	87          	ADD     A,A
2593:	F5          	PUSH    AF
2594:	D5          	PUSH    DE
2595:	E5          	PUSH    HL
2596:	DD E5       	PUSH    IX
2598:	FD E5       	PUSH    IY
259a:	21 B8 7C    	LD      HL,7CB8H
259d:	35          	DEC     (HL)
259e:	20 1C       	JR      NZ,05BCH
25a0:	36 05       	LD      (HL),05H
25a2:	2B          	DEC     HL
25a3:	35          	DEC     (HL)
25a4:	28 14       	JR      Z,05BAH
25a6:	2B          	DEC     HL
25a7:	7E          	LD      A,(HL)
25a8:	EE 01       	XOR     01H
25aa:	77          	LD      (HL),A
25ab:	32 F2 7B    	LD      (7BF2H),A
25ae:	21 E9 15    	LD      HL,15E9H
25b1:	DD 21 A2 9A  	LD      IX,9AA2H
25b5:	CD 03 13    	CALL    1303H
25b8:	18 02       	JR      05BCH
25ba:	36 01       	LD      (HL),01H
25bc:	21 F5 7B    	LD      HL,7BF5H
25bf:	97          	SUB     A
25c0:	BE          	CP      (HL)
25c1:	28 03       	JR      Z,05C6H
25c3:	35          	DEC     (HL)
25c4:	18 33       	JR      05F9H
25c6:	21 F6 7B    	LD      HL,7BF6H
25c9:	97          	SUB     A
25ca:	34          	INC     (HL)
25cb:	CB 46       	BIT     0,(HL)
25cd:	28 02       	JR      Z,05D1H
25cf:	3E 0B       	LD      A,0BH
25d1:	32 F2 7B    	LD      (7BF2H),A
25d4:	2A F7 7B    	LD      HL,(7BF7H)
25d7:	5E          	LD      E,(HL)
25d8:	23          	INC     HL
25d9:	56          	LD      D,(HL)
25da:	23          	INC     HL
25db:	D5          	PUSH    DE
25dc:	DD E1       	POP     IX
25de:	5E          	LD      E,(HL)
25df:	23          	INC     HL
25e0:	56          	LD      D,(HL)
25e1:	23          	INC     HL
25e2:	D5          	PUSH    DE
25e3:	FD E1       	POP     IY
25e5:	3A F2 7B    	LD      A,(7BF2H)
25e8:	FE 00       	CP      00H
25ea:	7E          	LD      A,(HL)
25eb:	20 06       	JR      NZ,05F3H
25ed:	23          	INC     HL
25ee:	22 F7 7B    	LD      (7BF7H),HL
25f1:	3E 05       	LD      A,05H
25f3:	32 F5 7B    	LD      (7BF5H),A
25f6:	CD 93 12    	CALL    1293H
25f9:	FD E1       	POP     IY
25fb:	DD E1       	POP     IX
25fd:	E1          	POP     HL
25fe:	D1          	POP     DE
25ff:	F1          	POP     AF
2600:	C9          	RET     

2601:	9F          	SBC     A,A
2602:	AA          	XOR     D
2603:	33          	INC     SP
2604:	26 32       	LD      H,32H
2606:	52          	LD      D,D
2607:	A5          	AND     L
2608:	41          	LD      B,C
2609:	26 3A       	LD      H,3AH
260b:	A2          	AND     D
260c:	AA          	XOR     D
260d:	6A          	LD      L,D
260e:	26 2D       	LD      H,2DH
2610:	53          	LD      D,E
2611:	A5          	AND     L
2612:	8E          	ADC     A,(HL)
2613:	26 1C       	LD      H,1CH
2615:	9F          	SBC     A,A
2616:	AA          	XOR     D
2617:	CC 26 14    	CALL    Z,1426H
261a:	3F          	CCF     
261b:	B5          	OR      L
261c:	DF          	RST     18H
261d:	26 2A       	LD      H,2AH
261f:	3F          	CCF     
2620:	B5          	OR      L
2621:	E8          	RET     PE

2622:	26 34       	LD      H,34H
2624:	3F          	CCF     
2625:	B5          	OR      L
2626:	F2 26 41    	JP      P,4126H
2629:	3F          	CCF     
262a:	B5          	OR      L
262b:	FB          	EI      
262c:	26 41       	LD      H,41H
262e:	3F          	CCF     
262f:	B5          	OR      L
2630:	05          	DEC     B
2631:	27          	DAA     
2632:	FA 0D 3C    	JP      M,3C0DH
2635:	14          	INC     D
2636:	14          	INC     D
2637:	5F          	LD      E,A
2638:	82          	ADD     A,D
2639:	5F          	LD      E,A
263a:	23          	INC     HL
263b:	14          	INC     D
263c:	82          	ADD     A,D
263d:	1E 37       	LD      E,37H
263f:	46          	LD      B,(HL)
2640:	05          	DEC     B
2641:	28 3C       	JR      Z,067FH
2643:	64          	LD      H,H
2644:	41          	LD      B,C
2645:	0A          	LD      A,(BC)
2646:	23          	INC     HL
2647:	82          	ADD     A,D
2648:	00          	NOP     
2649:	37          	SCF     
264a:	37          	SCF     
264b:	82          	ADD     A,D
264c:	5F          	LD      E,A
264d:	23          	INC     HL
264e:	14          	INC     D
264f:	82          	ADD     A,D
2650:	5A          	LD      E,D
2651:	41          	LD      B,C
2652:	00          	NOP     
2653:	0A          	LD      A,(BC)
2654:	32 5A FF    	LD      (0FF5AH),A
2657:	80          	ADD     A,B
2658:	5F          	LD      E,A
2659:	46          	LD      B,(HL)
265a:	82          	ADD     A,D
265b:	0A          	LD      A,(BC)
265c:	37          	SCF     
265d:	14          	INC     D
265e:	00          	NOP     
265f:	55          	LD      D,L
2660:	82          	ADD     A,D
2661:	5F          	LD      E,A
2662:	23          	INC     HL
2663:	14          	INC     D
2664:	82          	ADD     A,D
2665:	37          	SCF     
2666:	14          	INC     D
2667:	69          	LD      L,C
2668:	14          	INC     D
2669:	37          	SCF     
266a:	23          	INC     HL
266b:	4B          	LD      C,E
266c:	64          	LD      H,H
266d:	5A          	LD      E,D
266e:	23          	INC     HL
266f:	82          	ADD     A,D
2670:	0A          	LD      A,(BC)
2671:	00          	NOP     
2672:	37          	SCF     
2673:	37          	SCF     
2674:	82          	ADD     A,D
2675:	05          	DEC     B
2676:	64          	LD      H,H
2677:	5F          	LD      E,A
2678:	5F          	LD      E,A
2679:	46          	LD      B,(HL)
267a:	41          	LD      B,C
267b:	FF          	RST     38H
267c:	80          	ADD     A,B
267d:	5F          	LD      E,A
267e:	46          	LD      B,(HL)
267f:	82          	ADD     A,D
2680:	55          	LD      D,L
2681:	28 0F       	JR      Z,0692H
2683:	14          	INC     D
2684:	82          	ADD     A,D
2685:	14          	INC     D
2686:	37          	SCF     
2687:	14          	INC     D
2688:	69          	LD      L,C
2689:	00          	NOP     
268a:	5F          	LD      E,A
268b:	46          	LD      B,(HL)
268c:	55          	LD      D,L
268d:	5A          	LD      E,D
268e:	3D          	DEC     A
268f:	64          	LD      H,H
2690:	5A          	LD      E,D
2691:	14          	INC     D
2692:	82          	ADD     A,D
2693:	14          	INC     D
2694:	41          	LD      B,C
2695:	14          	INC     D
2696:	55          	LD      D,L
2697:	1E 78       	LD      E,78H
2699:	82          	ADD     A,D
269a:	5F          	LD      E,A
269b:	46          	LD      B,(HL)
269c:	82          	ADD     A,D
269d:	5A          	LD      E,D
269e:	5F          	LD      E,A
269f:	28 0A       	JR      Z,06ABH
26a1:	32 82 FF    	LD      (0FF82H),A
26a4:	80          	ADD     A,B
26a5:	5F          	LD      E,A
26a6:	46          	LD      B,(HL)
26a7:	82          	ADD     A,D
26a8:	0A          	LD      A,(BC)
26a9:	14          	INC     D
26aa:	28 37       	JR      Z,06E3H
26ac:	28 41       	JR      Z,06EFH
26ae:	1E 82       	LD      E,82H
26b0:	00          	NOP     
26b1:	41          	LD      B,C
26b2:	0F          	RRCA    
26b3:	82          	ADD     A,D
26b4:	0F          	RRCA    
26b5:	55          	LD      D,L
26b6:	46          	LD      B,(HL)
26b7:	4B          	LD      C,E
26b8:	82          	ADD     A,D
26b9:	FF          	RST     38H
26ba:	80          	ADD     A,B
26bb:	0F          	RRCA    
26bc:	46          	LD      B,(HL)
26bd:	6E          	LD      L,(HL)
26be:	41          	LD      B,C
26bf:	82          	ADD     A,D
26c0:	46          	LD      B,(HL)
26c1:	41          	LD      B,C
26c2:	5F          	LD      E,A
26c3:	46          	LD      B,(HL)
26c4:	82          	ADD     A,D
26c5:	5F          	LD      E,A
26c6:	23          	INC     HL
26c7:	14          	INC     D
26c8:	82          	ADD     A,D
26c9:	3C          	INC     A
26ca:	46          	LD      B,(HL)
26cb:	05          	DEC     B
26cc:	12          	LD      (DE),A
26cd:	05          	DEC     B
26ce:	14          	INC     D
26cf:	6E          	LD      L,(HL)
26d0:	00          	NOP     
26d1:	55          	LD      D,L
26d2:	14          	INC     D
26d3:	82          	ADD     A,D
26d4:	46          	LD      B,(HL)
26d5:	19          	ADD     HL,DE
26d6:	82          	ADD     A,D
26d7:	5F          	LD      E,A
26d8:	23          	INC     HL
26d9:	14          	INC     D
26da:	82          	ADD     A,D
26db:	3C          	INC     A
26dc:	46          	LD      B,(HL)
26dd:	05          	DEC     B
26de:	E1          	POP     HL
26df:	08          	EX      AF,AF'
26e0:	BE          	CP      (HL)
26e1:	BE          	CP      (HL)
26e2:	BE          	CP      (HL)
26e3:	1E 00       	LD      E,00H
26e5:	5F          	LD      E,A
26e6:	46          	LD      B,(HL)
26e7:	55          	LD      D,L
26e8:	09          	ADD     HL,BC
26e9:	BE          	CP      (HL)
26ea:	BE          	CP      (HL)
26eb:	BE          	CP      (HL)
26ec:	19          	ADD     HL,DE
26ed:	55          	LD      D,L
26ee:	46          	LD      B,(HL)
26ef:	1E 1E       	LD      E,1EH
26f1:	78          	LD      A,B
26f2:	08          	EX      AF,AF'
26f3:	BE          	CP      (HL)
26f4:	BE          	CP      (HL)
26f5:	BE          	CP      (HL)
26f6:	05          	DEC     B
26f7:	64          	LD      H,H
26f8:	41          	LD      B,C
26f9:	41          	LD      B,C
26fa:	78          	LD      A,B
26fb:	09          	ADD     HL,BC
26fc:	BE          	CP      (HL)
26fd:	BE          	CP      (HL)
26fe:	BE          	CP      (HL)
26ff:	3C          	INC     A
2700:	46          	LD      B,(HL)
2701:	41          	LD      B,C
2702:	32 14 78    	LD      (7814H),A
2705:	09          	ADD     HL,BC
2706:	BE          	CP      (HL)
2707:	BE          	CP      (HL)
2708:	BE          	CP      (HL)
2709:	4B          	LD      C,E
270a:	46          	LD      B,(HL)
270b:	55          	LD      D,L
270c:	32 14 55    	LD      (5514H),A
270f:	97          	SUB     A
2710:	CD 45 12    	CALL    1245H
2713:	32 A2 78    	LD      (78A2H),A
2716:	32 89 7C    	LD      (7C89H),A
2719:	06 C9       	LD      B,0C9H
271b:	21 99 79    	LD      HL,7999H
271e:	77          	LD      (HL),A
271f:	23          	INC     HL
2720:	10 FC       	DJNZ    071EH
2722:	06 0A       	LD      B,0AH
2724:	21 6D 7D    	LD      HL,7D6DH
2727:	77          	LD      (HL),A
2728:	23          	INC     HL
2729:	10 FC       	DJNZ    0727H
272b:	21 B6 7C    	LD      HL,7CB6H
272e:	77          	LD      (HL),A
272f:	23          	INC     HL
2730:	36 0D       	LD      (HL),0DH
2732:	23          	INC     HL
2733:	36 68       	LD      (HL),68H
2735:	3A B4 7C    	LD      A,(7CB4H)
2738:	FE 01       	CP      01H
273a:	20 13       	JR      NZ,074FH
273c:	97          	SUB     A
273d:	32 F6 7B    	LD      (7BF6H),A
2740:	3E 05       	LD      A,05H
2742:	32 F5 7B    	LD      (7BF5H),A
2745:	21 01 26    	LD      HL,2601H
2748:	22 F7 7B    	LD      (7BF7H),HL
274b:	3E 19       	LD      A,19H
274d:	18 1F       	JR      076EH
274f:	3A 64 7D    	LD      A,(7D64H)
2752:	FE 01       	CP      01H
2754:	21 7F 7D    	LD      HL,7D7FH
2757:	11 91 7D    	LD      DE,7D91H
275a:	28 06       	JR      Z,0762H
275c:	21 80 7D    	LD      HL,7D80H
275f:	11 94 7D    	LD      DE,7D94H
2762:	7E          	LD      A,(HL)
2763:	32 81 7D    	LD      (7D81H),A
2766:	1A          	LD      A,(DE)
2767:	FE 19       	CP      19H
2769:	20 03       	JR      NZ,076EH
276b:	3E 01       	LD      A,01H
276d:	12          	LD      (DE),A
276e:	11 2B 6E    	LD      DE,6E2BH
2771:	26 00       	LD      H,00H
2773:	3D          	DEC     A
2774:	07          	RLCA    
2775:	6F          	LD      L,A
2776:	19          	ADD     HL,DE
2777:	7E          	LD      A,(HL)
2778:	23          	INC     HL
2779:	66          	LD      H,(HL)
277a:	6F          	LD      L,A
277b:	11 82 7C    	LD      DE,7C82H
277e:	7E          	LD      A,(HL)
277f:	12          	LD      (DE),A
2780:	47          	LD      B,A
2781:	23          	INC     HL
2782:	13          	INC     DE
2783:	7E          	LD      A,(HL)
2784:	12          	LD      (DE),A
2785:	E6 0F       	AND     0FH
2787:	32 58 7C    	LD      (7C58H),A
278a:	4F          	LD      C,A
278b:	78          	LD      A,B
278c:	E6 F0       	AND     0F0H
278e:	B1          	OR      C
278f:	13          	INC     DE
2790:	12          	LD      (DE),A
2791:	07          	RLCA    
2792:	07          	RLCA    
2793:	07          	RLCA    
2794:	07          	RLCA    
2795:	13          	INC     DE
2796:	12          	LD      (DE),A
2797:	78          	LD      A,B
2798:	E6 0F       	AND     0FH
279a:	32 59 7C    	LD      (7C59H),A
279d:	CD 20 2B    	CALL    2B20H
27a0:	D3 00       	OUT     (00H),A
27a2:	23          	INC     HL
27a3:	7E          	LD      A,(HL)
27a4:	32 63 79    	LD      (7963H),A
27a7:	E5          	PUSH    HL
27a8:	21 BC 29    	LD      HL,29BCH
27ab:	3D          	DEC     A
27ac:	07          	RLCA    
27ad:	16 00       	LD      D,00H
27af:	5F          	LD      E,A
27b0:	19          	ADD     HL,DE
27b1:	5E          	LD      E,(HL)
27b2:	23          	INC     HL
27b3:	56          	LD      D,(HL)
27b4:	ED 53 5F 79  	LD      (795FH),DE
27b8:	D1          	POP     DE
27b9:	21 0B 80    	LD      HL,800BH
27bc:	22 5D 79    	LD      (795DH),HL
27bf:	06 06       	LD      B,06H
27c1:	D5          	PUSH    DE
27c2:	3E 06       	LD      A,06H
27c4:	90          	SUB     B
27c5:	5F          	LD      E,A
27c6:	07          	RLCA    
27c7:	83          	ADD     A,E
27c8:	07          	RLCA    
27c9:	83          	ADD     A,E
27ca:	07          	RLCA    
27cb:	16 00       	LD      D,00H
27cd:	5F          	LD      E,A
27ce:	21 B1 78    	LD      HL,78B1H
27d1:	19          	ADD     HL,DE
27d2:	36 06       	LD      (HL),06H
27d4:	23          	INC     HL
27d5:	22 59 79    	LD      (7959H),HL
27d8:	21 05 79    	LD      HL,7905H
27db:	19          	ADD     HL,DE
27dc:	36 D8       	LD      (HL),0D8H
27de:	23          	INC     HL
27df:	22 5B 79    	LD      (795BH),HL
27e2:	D1          	POP     DE
27e3:	13          	INC     DE
27e4:	1A          	LD      A,(DE)
27e5:	D5          	PUSH    DE
27e6:	21 45 2A    	LD      HL,2A45H
27e9:	0E 01       	LD      C,01H
27eb:	CD D4 29    	CALL    29D4H
27ee:	D1          	POP     DE
27ef:	13          	INC     DE
27f0:	1A          	LD      A,(DE)
27f1:	D5          	PUSH    DE
27f2:	21 4B 2A    	LD      HL,2A4BH
27f5:	0E 02       	LD      C,02H
27f7:	CD D4 29    	CALL    29D4H
27fa:	3E FF       	LD      A,0FFH
27fc:	2A 59 79    	LD      HL,(7959H)
27ff:	77          	LD      (HL),A
2800:	2A 5B 79    	LD      HL,(795BH)
2803:	77          	LD      (HL),A
2804:	2A 5D 79    	LD      HL,(795DH)
2807:	11 10 00    	LD      DE,0010H
280a:	19          	ADD     HL,DE
280b:	22 5D 79    	LD      (795DH),HL
280e:	D1          	POP     DE
280f:	10 B0       	DJNZ    07C1H
2811:	3A 8C 7C    	LD      A,(7C8CH)
2814:	FE 01       	CP      01H
2816:	28 2D       	JR      Z,0845H
2818:	D5          	PUSH    DE
2819:	21 A1 B5    	LD      HL,0B5A1H
281c:	ED 5B 5F 79  	LD      DE,(795FH)
2820:	13          	INC     DE
2821:	CD 84 30    	CALL    3084H
2824:	3E 07       	LD      A,07H
2826:	32 F2 7B    	LD      (7BF2H),A
2829:	3A 63 79    	LD      A,(7963H)
282c:	FE 0A       	CP      0AH
282e:	38 02       	JR      C,0832H
2830:	C6 06       	ADD     A,06H
2832:	C6 09       	ADD     A,09H
2834:	27          	DAA     
2835:	DD 21 40 C0  	LD      IX,0C040H
2839:	CD B4 10    	CALL    10B4H
283c:	CD F5 10    	CALL    10F5H
283f:	2E 00       	LD      L,00H
2841:	CD 00 11    	CALL    1100H
2844:	D1          	POP     DE
2845:	21 0A 78    	LD      HL,780AH
2848:	06 08       	LD      B,08H
284a:	13          	INC     DE
284b:	1A          	LD      A,(DE)
284c:	77          	LD      (HL),A
284d:	23          	INC     HL
284e:	13          	INC     DE
284f:	1A          	LD      A,(DE)
2850:	77          	LD      (HL),A
2851:	D5          	PUSH    DE
2852:	11 07 00    	LD      DE,0007H
2855:	19          	ADD     HL,DE
2856:	D1          	POP     DE
2857:	36 00       	LD      (HL),00H
2859:	23          	INC     HL
285a:	23          	INC     HL
285b:	10 ED       	DJNZ    084AH
285d:	21 0B 80    	LD      HL,800BH
2860:	22 5D 79    	LD      (795DH),HL
2863:	06 06       	LD      B,06H
2865:	C5          	PUSH    BC
2866:	D5          	PUSH    DE
2867:	D3 00       	OUT     (00H),A
2869:	3E 06       	LD      A,06H
286b:	90          	SUB     B
286c:	5F          	LD      E,A
286d:	07          	RLCA    
286e:	07          	RLCA    
286f:	07          	RLCA    
2870:	07          	RLCA    
2871:	07          	RLCA    
2872:	83          	ADD     A,E
2873:	16 00       	LD      D,00H
2875:	5F          	LD      E,A
2876:	3A 64 7D    	LD      A,(7D64H)
2879:	FE 01       	CP      01H
287b:	21 62 7A    	LD      HL,7A62H
287e:	28 03       	JR      Z,0883H
2880:	21 28 7B    	LD      HL,7B28H
2883:	19          	ADD     HL,DE
2884:	22 EE 7B    	LD      (7BEEH),HL
2887:	21 9C 79    	LD      HL,799CH
288a:	19          	ADD     HL,DE
288b:	D1          	POP     DE
288c:	13          	INC     DE
288d:	1A          	LD      A,(DE)
288e:	01 AC 29    	LD      BC,29ACH
2891:	CD 5C 29    	CALL    295CH
2894:	13          	INC     DE
2895:	1A          	LD      A,(DE)
2896:	01 B4 29    	LD      BC,29B4H
2899:	CD 5C 29    	CALL    295CH
289c:	36 FF       	LD      (HL),0FFH
289e:	2A 5D 79    	LD      HL,(795DH)
28a1:	01 10 00    	LD      BC,0010H
28a4:	09          	ADD     HL,BC
28a5:	22 5D 79    	LD      (795DH),HL
28a8:	C1          	POP     BC
28a9:	10 BA       	DJNZ    0865H
28ab:	62          	LD      H,D
28ac:	6B          	LD      L,E
28ad:	23          	INC     HL
28ae:	7E          	LD      A,(HL)
28af:	32 86 7C    	LD      (7C86H),A
28b2:	CD 51 2A    	CALL    2A51H
28b5:	11 DA 42    	LD      DE,42DAH
28b8:	21 C3 83    	LD      HL,83C3H
28bb:	CD 84 30    	CALL    3084H
28be:	21 88 2B    	LD      HL,2B88H
28c1:	11 00 78    	LD      DE,7800H
28c4:	06 0A       	LD      B,0AH
28c6:	7E          	LD      A,(HL)
28c7:	12          	LD      (DE),A
28c8:	13          	INC     DE
28c9:	23          	INC     HL
28ca:	10 FA       	DJNZ    08C6H
28cc:	3A 8C 7C    	LD      A,(7C8CH)
28cf:	FE 01       	CP      01H
28d1:	20 05       	JR      NZ,08D8H
28d3:	3A 86 7D    	LD      A,(7D86H)
28d6:	18 13       	JR      08EBH
28d8:	3A 64 7D    	LD      A,(7D64H)
28db:	FE 01       	CP      01H
28dd:	3A 86 7D    	LD      A,(7D86H)
28e0:	28 03       	JR      Z,08E5H
28e2:	3A 87 7D    	LD      A,(7D87H)
28e5:	FE 10       	CP      10H
28e7:	38 02       	JR      C,08EBH
28e9:	3E 0F       	LD      A,0FH
28eb:	11 70 74    	LD      DE,7470H
28ee:	26 00       	LD      H,00H
28f0:	3D          	DEC     A
28f1:	07          	RLCA    
28f2:	6F          	LD      L,A
28f3:	19          	ADD     HL,DE
28f4:	5E          	LD      E,(HL)
28f5:	23          	INC     HL
28f6:	56          	LD      D,(HL)
28f7:	1A          	LD      A,(DE)
28f8:	32 88 7C    	LD      (7C88H),A
28fb:	13          	INC     DE
28fc:	1A          	LD      A,(DE)
28fd:	13          	INC     DE
28fe:	32 7C 7D    	LD      (7D7CH),A
2901:	32 7D 7D    	LD      (7D7DH),A
2904:	1A          	LD      A,(DE)
2905:	13          	INC     DE
2906:	32 7E 7D    	LD      (7D7EH),A
2909:	06 08       	LD      B,08H
290b:	21 71 79    	LD      HL,7971H
290e:	C5          	PUSH    BC
290f:	01 08 00    	LD      BC,0008H
2912:	1A          	LD      A,(DE)
2913:	77          	LD      (HL),A
2914:	13          	INC     DE
2915:	09          	ADD     HL,BC
2916:	1A          	LD      A,(DE)
2917:	77          	LD      (HL),A
2918:	13          	INC     DE
2919:	09          	ADD     HL,BC
291a:	1A          	LD      A,(DE)
291b:	77          	LD      (HL),A
291c:	13          	INC     DE
291d:	09          	ADD     HL,BC
291e:	1A          	LD      A,(DE)
291f:	77          	LD      (HL),A
2920:	09          	ADD     HL,BC
2921:	77          	LD      (HL),A
2922:	01 E1 FF    	LD      BC,0FFE1H
2925:	13          	INC     DE
2926:	09          	ADD     HL,BC
2927:	C1          	POP     BC
2928:	10 E4       	DJNZ    090EH
292a:	3A 8C 7C    	LD      A,(7C8CH)
292d:	FE 01       	CP      01H
292f:	28 22       	JR      Z,0953H
2931:	CD 8E 19    	CALL    198EH
2934:	3A 66 7D    	LD      A,(7D66H)
2937:	FE 02       	CP      02H
2939:	20 0F       	JR      NZ,094AH
293b:	3E 01       	LD      A,01H
293d:	32 67 7D    	LD      (7D67H),A
2940:	CD 3F 18    	CALL    183FH
2943:	CD D5 19    	CALL    19D5H
2946:	97          	SUB     A
2947:	32 67 7D    	LD      (7D67H),A
294a:	CD 3F 18    	CALL    183FH
294d:	CD D5 19    	CALL    19D5H
2950:	CD 5C 1A    	CALL    1A5CH
2953:	CD 3B 09    	CALL    093BH
2956:	3E FF       	LD      A,0FFH
2958:	32 62 7D    	LD      (7D62H),A
295b:	C9          	RET     

295c:	D5          	PUSH    DE
295d:	50          	LD      D,B
295e:	59          	LD      E,C
295f:	06 08       	LD      B,08H
2961:	0F          	RRCA    
2962:	30 43       	JR      NC,09A7H
2964:	F5          	PUSH    AF
2965:	3A 81 7D    	LD      A,(7D81H)
2968:	FE 01       	CP      01H
296a:	28 15       	JR      Z,0981H
296c:	E5          	PUSH    HL
296d:	2A EE 7B    	LD      HL,(7BEEH)
2970:	7E          	LD      A,(HL)
2971:	23          	INC     HL
2972:	23          	INC     HL
2973:	22 EE 7B    	LD      (7BEEH),HL
2976:	E1          	POP     HL
2977:	FE 00       	CP      00H
2979:	20 06       	JR      NZ,0981H
297b:	77          	LD      (HL),A
297c:	23          	INC     HL
297d:	77          	LD      (HL),A
297e:	23          	INC     HL
297f:	18 25       	JR      09A6H
2981:	36 01       	LD      (HL),01H
2983:	23          	INC     HL
2984:	1A          	LD      A,(DE)
2985:	77          	LD      (HL),A
2986:	23          	INC     HL
2987:	D5          	PUSH    DE
2988:	E5          	PUSH    HL
2989:	ED 5B 5F79  	LD      DE,(795FH)
298d:	6F          	LD      L,A
298e:	1A          	LD      A,(DE)
298f:	13          	INC     DE
2990:	D5          	PUSH    DE
2991:	85          	ADD     A,L
2992:	16 00       	LD      D,00H
2994:	5F          	LD      E,A
2995:	CD 37 11    	CALL    1137H
2998:	2A 5D 79    	LD      HL,(795DH)
299b:	19          	ADD     HL,DE
299c:	D1          	POP     DE
299d:	CD 84 30    	CALL    3084H
29a0:	21 9B 79    	LD      HL,799BH
29a3:	34          	INC     (HL)
29a4:	E1          	POP     HL
29a5:	D1          	POP     DE
29a6:	F1          	POP     AF
29a7:	13          	INC     DE
29a8:	10 B7       	DJNZ    0961H
29aa:	D1          	POP     DE
29ab:	C9          	RET     

29ac:	06 15       	LD      B,15H
29ae:	24          	INC     H
29af:	33          	INC     SP
29b0:	42          	LD      B,D
29b1:	51          	LD      D,C
29b2:	60          	LD      H,B
29b3:	6F          	LD      L,A
29b4:	76          	HALT    
29b5:	7E          	LD      A,(HL)
29b6:	8D          	ADC     A,L
29b7:	9C          	SBC     A,H
29b8:	AB          	XOR     E
29b9:	BA          	CP      D
29ba:	C9          	RET     

29bb:	D8          	RET     C

29bc:	B6          	OR      (HL)
29bd:	58          	LD      E,B
29be:	96          	SUB     (HL)
29bf:	5A          	LD      E,D
29c0:	74          	LD      (HL),H
29c1:	58          	LD      E,B
29c2:	54          	LD      D,H
29c3:	5A          	LD      E,D
29c4:	57          	LD      D,A
29c5:	59          	LD      E,C
29c6:	3D          	DEC     A
29c7:	58          	LD      E,B
29c8:	30 59       	JR      NC,0A23H
29ca:	BC          	CP      H
29cb:	59          	LD      E,C
29cc:	F7          	RST     30H
29cd:	59          	LD      E,C
29ce:	E6 57       	AND     57H
29d0:	E6 5A       	AND     5AH
29d2:	06 59       	LD      B,59H
29d4:	C5          	PUSH    BC
29d5:	CB 7F       	BIT     7,A
29d7:	11 6E 56    	LD      DE,566EH
29da:	C4 20 2A    	CALL    NZ,2A20H
29dd:	CB 77       	BIT     6,A
29df:	11 13 57    	LD      DE,5713H
29e2:	C4 20 2A    	CALL    NZ,2A20H
29e5:	06 06       	LD      B,06H
29e7:	0F          	RRCA    
29e8:	30 31       	JR      NC,0A1BH
29ea:	F5          	PUSH    AF
29eb:	16 00       	LD      D,00H
29ed:	5E          	LD      E,(HL)
29ee:	08          	EX      AF,AF'
29ef:	7B          	LD      A,E
29f0:	08          	EX      AF,AF'
29f1:	1D          	DEC     E
29f2:	CD 37 11    	CALL    1137H
29f5:	E5          	PUSH    HL
29f6:	2A 5D 79    	LD      HL,(795DH)
29f9:	19          	ADD     HL,DE
29fa:	C5          	PUSH    BC
29fb:	01 02 0F    	LD      BC,0F02H
29fe:	3A 82 7C    	LD      A,(7C82H)
2a01:	CD 4F 11    	CALL    114FH
2a04:	C1          	POP     BC
2a05:	2A 59 79    	LD      HL,(7959H)
2a08:	08          	EX      AF,AF'
2a09:	77          	LD      (HL),A
2a0a:	23          	INC     HL
2a0b:	22 59 79    	LD      (7959H),HL
2a0e:	2A 5B 79    	LD      HL,(795BH)
2a11:	D6 0F       	SUB     0FH
2a13:	77          	LD      (HL),A
2a14:	23          	INC     HL
2a15:	22 5B 79    	LD      (795BH),HL
2a18:	08          	EX      AF,AF'
2a19:	E1          	POP     HL
2a1a:	F1          	POP     AF
2a1b:	23          	INC     HL
2a1c:	10 C9       	DJNZ    09E7H
2a1e:	C1          	POP     BC
2a1f:	C9          	RET     

2a20:	F5          	PUSH    AF
2a21:	C5          	PUSH    BC
2a22:	E5          	PUSH    HL
2a23:	D5          	PUSH    DE
2a24:	11 30 03    	LD      DE,0330H
2a27:	79          	LD      A,C
2a28:	FE 01       	CP      01H
2a2a:	28 03       	JR      Z,0A2FH
2a2c:	11 50 6B    	LD      DE,6B50H
2a2f:	2A 5D 79    	LD      HL,(795DH)
2a32:	19          	ADD     HL,DE
2a33:	E5          	PUSH    HL
2a34:	DD E1       	POP     IX
2a36:	E1          	POP     HL
2a37:	0E 1D       	LD      C,1DH
2a39:	3E 0F       	LD      A,0FH
2a3b:	32 52 7C    	LD      (7C52H),A
2a3e:	CD 56 1B    	CALL    1B56H
2a41:	E1          	POP     HL
2a42:	C1          	POP     BC
2a43:	F1          	POP     AF
2a44:	C9          	RET     

2a45:	24          	INC     H
2a46:	33          	INC     SP
2a47:	42          	LD      B,D
2a48:	51          	LD      D,C
2a49:	60          	LD      H,B
2a4a:	6F          	LD      L,A
2a4b:	7E          	LD      A,(HL)
2a4c:	8D          	ADC     A,L
2a4d:	9C          	SBC     A,H
2a4e:	AB          	XOR     E
2a4f:	BA          	CP      D
2a50:	C9          	RET     

2a51:	06 05       	LD      B,05H
2a53:	07          	RLCA    
2a54:	D2 02 2B    	JP      NC,2B02H
2a57:	F5          	PUSH    AF
2a58:	C5          	PUSH    BC
2a59:	E5          	PUSH    HL
2a5a:	CD 16 35    	CALL    3516H
2a5d:	D1          	POP     DE
2a5e:	97          	SUB     A
2a5f:	77          	LD      (HL),A
2a60:	23          	INC     HL
2a61:	77          	LD      (HL),A
2a62:	23          	INC     HL
2a63:	13          	INC     DE
2a64:	1A          	LD      A,(DE)
2a65:	3D          	DEC     A
2a66:	06 10       	LD      B,10H
2a68:	D5          	PUSH    DE
2a69:	CD 2B 11    	CALL    112BH
2a6c:	7B          	LD      A,E
2a6d:	D1          	POP     DE
2a6e:	C6 0B       	ADD     A,0BH
2a70:	32 A6 78    	LD      (78A6H),A
2a73:	77          	LD      (HL),A
2a74:	13          	INC     DE
2a75:	23          	INC     HL
2a76:	23          	INC     HL
2a77:	1A          	LD      A,(DE)
2a78:	32 AD 78    	LD      (78ADH),A
2a7b:	77          	LD      (HL),A
2a7c:	13          	INC     DE
2a7d:	23          	INC     HL
2a7e:	1A          	LD      A,(DE)
2a7f:	32 AE 78    	LD      (78AEH),A
2a82:	77          	LD      (HL),A
2a83:	13          	INC     DE
2a84:	23          	INC     HL
2a85:	1A          	LD      A,(DE)
2a86:	32 AF 78    	LD      (78AFH),A
2a89:	77          	LD      (HL),A
2a8a:	13          	INC     DE
2a8b:	23          	INC     HL
2a8c:	1A          	LD      A,(DE)
2a8d:	32 B0 78    	LD      (78B0H),A
2a90:	77          	LD      (HL),A
2a91:	C1          	POP     BC
2a92:	C5          	PUSH    BC
2a93:	D5          	PUSH    DE
2a94:	58          	LD      E,B
2a95:	16 00       	LD      D,00H
2a97:	21 06 2B    	LD      HL,2B06H
2a9a:	19          	ADD     HL,DE
2a9b:	5E          	LD      E,(HL)
2a9c:	CD 37 11    	CALL    1137H
2a9f:	D5          	PUSH    DE
2aa0:	21 00 80    	LD      HL,8000H
2aa3:	19          	ADD     HL,DE
2aa4:	3A AD 78    	LD      A,(78ADH)
2aa7:	5F          	LD      E,A
2aa8:	3A AE 78    	LD      A,(78AEH)
2aab:	93          	SUB     E
2aac:	C6 0F       	ADD     A,0FH
2aae:	16 00       	LD      D,00H
2ab0:	19          	ADD     HL,DE
2ab1:	47          	LD      B,A
2ab2:	0E 01       	LD      C,01H
2ab4:	3E FF       	LD      A,0FFH
2ab6:	CD 4F 11    	CALL    114FH
2ab9:	11 90 F8    	LD      DE,0F890H
2abc:	19          	ADD     HL,DE
2abd:	CD 4F 11    	CALL    114FH
2ac0:	D1          	POP     DE
2ac1:	21 53 73    	LD      HL,7353H
2ac4:	19          	ADD     HL,DE
2ac5:	3A AF 78    	LD      A,(78AFH)
2ac8:	CD 0C 2B    	CALL    2B0CH
2acb:	11 90 0F    	LD      DE,0F90H
2ace:	19          	ADD     HL,DE
2acf:	3A B0 78    	LD      A,(78B0H)
2ad2:	CD 0C 2B    	CALL    2B0CH
2ad5:	11 75 F5    	LD      DE,0F575H
2ad8:	19          	ADD     HL,DE
2ad9:	16 00       	LD      D,00H
2adb:	3A A6 78    	LD      A,(78A6H)
2ade:	5F          	LD      E,A
2adf:	19          	ADD     HL,DE
2ae0:	01 02 0F    	LD      BC,0F02H
2ae3:	3E EE       	LD      A,0EEH
2ae5:	CD 4F 11    	CALL    114FH
2ae8:	01 0D 01    	LD      BC,010DH
2aeb:	CD 4F 11    	CALL    114FH
2aee:	11 0E 00    	LD      DE,000EH
2af1:	19          	ADD     HL,DE
2af2:	CD 4F 11    	CALL    114FH
2af5:	01 02 0F    	LD      BC,0F02H
2af8:	11 CA 05    	LD      DE,05CAH
2afb:	19          	ADD     HL,DE
2afc:	CD 4F 11    	CALL    114FH
2aff:	E1          	POP     HL
2b00:	C1          	POP     BC
2b01:	F1          	POP     AF
2b02:	05          	DEC     B
2b03:	C2 53 2A    	JP      NZ,2A53H
2b06:	C9          	RET     

2b07:	D7          	RST     10H
2b08:	AA          	XOR     D
2b09:	7D          	LD      A,L
2b0a:	50          	LD      D,B
2b0b:	23          	INC     HL
2b0c:	06 06       	LD      B,06H
2b0e:	0F          	RRCA    
2b0f:	CB 47       	BIT     0,A
2b11:	28 06       	JR      Z,0B19H
2b13:	11 5D 56    	LD      DE,565DH
2b16:	CD 84 30    	CALL    3084H
2b19:	11 10 00    	LD      DE,0010H
2b1c:	19          	ADD     HL,DE
2b1d:	10 EF       	DJNZ    0B0EH
2b1f:	C9          	RET     

2b20:	E5          	PUSH    HL
2b21:	21 46 2B    	LD      HL,2B46H
2b24:	7E          	LD      A,(HL)
2b25:	FE FF       	CP      0FFH
2b27:	28 1B       	JR      Z,0B44H
2b29:	4F          	LD      C,A
2b2a:	23          	INC     HL
2b2b:	46          	LD      B,(HL)
2b2c:	23          	INC     HL
2b2d:	5E          	LD      E,(HL)
2b2e:	23          	INC     HL
2b2f:	56          	LD      D,(HL)
2b30:	23          	INC     HL
2b31:	7E          	LD      A,(HL)
2b32:	23          	INC     HL
2b33:	E5          	PUSH    HL
2b34:	D5          	PUSH    DE
2b35:	21 82 7C    	LD      HL,7C82H
2b38:	16 00       	LD      D,00H
2b3a:	5F          	LD      E,A
2b3b:	19          	ADD     HL,DE
2b3c:	7E          	LD      A,(HL)
2b3d:	E1          	POP     HL
2b3e:	CD 4F 11    	CALL    114FH
2b41:	E1          	POP     HL
2b42:	18 E0       	JR      0B24H
2b44:	E1          	POP     HL
2b45:	C9          	RET     

2b46:	04          	INC     B
2b47:	63          	LD      H,E
2b48:	19          	ADD     HL,DE
2b49:	81          	ADD     A,C
2b4a:	00          	NOP     
2b4b:	04          	INC     B
2b4c:	63          	LD      H,E
2b4d:	C1          	POP     BC
2b4e:	FA 00 E7    	JP      M,0E700H
2b51:	01 02 82    	LD      BC,8202H
2b54:	03          	INC     BC
2b55:	E7          	RST     20H
2b56:	01 A2 81    	LD      BC,81A2H
2b59:	02          	LD      (BC),A
2b5a:	02          	LD      (BC),A
2b5b:	61          	LD      H,C
2b5c:	A2          	AND     D
2b5d:	81          	ADD     A,C
2b5e:	01 02 61    	LD      BC,6102H
2b61:	4A          	LD      C,D
2b62:	FB          	EI      
2b63:	01 E7 01    	LD      BC,01E7H
2b66:	03          	INC     BC
2b67:	82          	ADD     A,D
2b68:	02          	LD      (BC),A
2b69:	E7          	RST     20H
2b6a:	01 A1 81    	LD      BC,81A1H
2b6d:	03          	INC     BC
2b6e:	E1          	POP     HL
2b6f:	01 4A 83    	LD      BC,834AH
2b72:	00          	NOP     
2b73:	E1          	POP     HL
2b74:	01 5A 83    	LD      BC,835AH
2b77:	00          	NOP     
2b78:	E1          	POP     HL
2b79:	01 6A 83    	LD      BC,836AH
2b7c:	00          	NOP     
2b7d:	E1          	POP     HL
2b7e:	01 7A 83    	LD      BC,837AH
2b81:	00          	NOP     
2b82:	E1          	POP     HL
2b83:	01 8A 83    	LD      BC,838AH
2b86:	00          	NOP     
2b87:	FF          	RST     38H
2b88:	06 0B       	LD      B,0BH
2b8a:	3B          	DEC     SP
2b8b:	83          	ADD     A,E
2b8c:	DA 42 9F    	JP      C,9F42H
2b8f:	3D          	DEC     A
2b90:	80          	ADD     A,B
2b91:	00          	NOP     
2b92:	F5          	PUSH    AF
2b93:	C5          	PUSH    BC
2b94:	D5          	PUSH    DE
2b95:	E5          	PUSH    HL
2b96:	E5          	PUSH    HL
2b97:	46          	LD      B,(HL)
2b98:	23          	INC     HL
2b99:	7E          	LD      A,(HL)
2b9a:	E6 F0       	AND     0F0H
2b9c:	F6 0B       	OR      0BH
2b9e:	77          	LD      (HL),A
2b9f:	E5          	PUSH    HL
2ba0:	21 00 80    	LD      HL,8000H
2ba3:	16 00       	LD      D,00H
2ba5:	5F          	LD      E,A
2ba6:	19          	ADD     HL,DE
2ba7:	58          	LD      E,B
2ba8:	CD 37 11    	CALL    1137H
2bab:	19          	ADD     HL,DE
2bac:	EB          	EX      DE,HL
2bad:	E1          	POP     HL
2bae:	23          	INC     HL
2baf:	73          	LD      (HL),E
2bb0:	23          	INC     HL
2bb1:	72          	LD      (HL),D
2bb2:	E5          	PUSH    HL
2bb3:	21 E6 2B    	LD      HL,2BE6H
2bb6:	3A A1 78    	LD      A,(78A1H)
2bb9:	3D          	DEC     A
2bba:	07          	RLCA    
2bbb:	16 00       	LD      D,00H
2bbd:	5F          	LD      E,A
2bbe:	19          	ADD     HL,DE
2bbf:	5E          	LD      E,(HL)
2bc0:	23          	INC     HL
2bc1:	56          	LD      D,(HL)
2bc2:	E1          	POP     HL
2bc3:	23          	INC     HL
2bc4:	73          	LD      (HL),E
2bc5:	23          	INC     HL
2bc6:	72          	LD      (HL),D
2bc7:	E5          	PUSH    HL
2bc8:	21 F0 2B    	LD      HL,2BF0H
2bcb:	16 00       	LD      D,00H
2bcd:	5F          	LD      E,A
2bce:	19          	ADD     HL,DE
2bcf:	5E          	LD      E,(HL)
2bd0:	23          	INC     HL
2bd1:	56          	LD      D,(HL)
2bd2:	E1          	POP     HL
2bd3:	23          	INC     HL
2bd4:	73          	LD      (HL),E
2bd5:	23          	INC     HL
2bd6:	72          	LD      (HL),D
2bd7:	23          	INC     HL
2bd8:	36 A0       	LD      (HL),0A0H
2bda:	23          	INC     HL
2bdb:	36 00       	LD      (HL),00H
2bdd:	E1          	POP     HL
2bde:	CD 34 30    	CALL    3034H
2be1:	E1          	POP     HL
2be2:	D1          	POP     DE
2be3:	C1          	POP     BC
2be4:	F1          	POP     AF
2be5:	C9          	RET     

2be6:	69          	LD      L,C
2be7:	4C          	LD      C,H
2be8:	A5          	AND     L
2be9:	51          	LD      D,C
2bea:	44          	LD      B,H
2beb:	5B          	LD      E,E
2bec:	5C          	LD      E,H
2bed:	62          	LD      H,D
2bee:	AC          	XOR     H
2bef:	68          	LD      L,B
2bf0:	CC 37 B9    	CALL    Z,0B937H
2bf3:	38 EF       	JR      C,0BE4H
2bf5:	39          	ADD     HL,SP
2bf6:	26 3B       	LD      H,3BH
2bf8:	66          	LD      H,(HL)
2bf9:	3C          	INC     A
2bfa:	21 0A 77    	LD      HL,770AH
2bfd:	22 7D 7C    	LD      (7C7DH),HL
2c00:	3A 9A 79    	LD      A,(799AH)
2c03:	3C          	INC     A
2c04:	E6 03       	AND     03H
2c06:	32 9A 79    	LD      (799AH),A
2c09:	CD E9 2F    	CALL    2FE9H
2c0c:	3A B4 7C    	LD      A,(7CB4H)
2c0f:	FE 01       	CP      01H
2c11:	20 03       	JR      NZ,0C16H
2c13:	CD 93 25    	CALL    2593H
2c16:	3A 88 7C    	LD      A,(7C88H)
2c19:	32 87 7C    	LD      (7C87H),A
2c1c:	21 00 78    	LD      HL,7800H
2c1f:	3E 80       	LD      A,80H
2c21:	32 A1 78    	LD      (78A1H),A
2c24:	3E FF       	LD      A,0FFH
2c26:	32 65 79    	LD      (7965H),A
2c29:	CD 9F 30    	CALL    309FH
2c2c:	CD C7 2E    	CALL    2EC7H
2c2f:	3A 62 79    	LD      A,(7962H)
2c32:	32 6A 79    	LD      (796AH),A
2c35:	FE 00       	CP      00H
2c37:	28 69       	JR      Z,0CA2H
2c39:	3A A7 78    	LD      A,(78A7H)
2c3c:	E6 7E       	AND     7EH
2c3e:	FE 04       	CP      04H
2c40:	20 05       	JR      NZ,0C47H
2c42:	3E 10       	LD      A,10H
2c44:	CD 53 0B    	CALL    0B53H
2c47:	0E 06       	LD      C,06H
2c49:	CD B0 2F    	CALL    2FB0H
2c4c:	FE 00       	CP      00H
2c4e:	28 05       	JR      Z,0C55H
2c50:	3E 0A       	LD      A,0AH
2c52:	CD 53 0B    	CALL    0B53H
2c55:	0E 10       	LD      C,10H
2c57:	CD B0 2F    	CALL    2FB0H
2c5a:	FE 00       	CP      00H
2c5c:	28 1A       	JR      Z,0C78H
2c5e:	3E 01       	LD      A,01H
2c60:	32 8A 7C    	LD      (7C8AH),A
2c63:	3E 05       	LD      A,05H
2c65:	32 64 79    	LD      (7964H),A
2c68:	3A 89 7C    	LD      A,(7C89H)
2c6b:	FE 01       	CP      01H
2c6d:	20 09       	JR      NZ,0C78H
2c6f:	97          	SUB     A
2c70:	32 89 7C    	LD      (7C89H),A
2c73:	3E 08       	LD      A,08H
2c75:	CD 53 0B    	CALL    0B53H
2c78:	CD C3 2F    	CALL    2FC3H
2c7b:	FE 00       	CP      00H
2c7d:	28 17       	JR      Z,0C96H
2c7f:	3A 8B 7C    	LD      A,(7C8BH)
2c82:	FE 01       	CP      01H
2c84:	20 10       	JR      NZ,0C96H
2c86:	3A 89 7C    	LD      A,(7C89H)
2c89:	FE 00       	CP      00H
2c8b:	20 09       	JR      NZ,0C96H
2c8d:	3C          	INC     A
2c8e:	32 89 7C    	LD      (7C89H),A
2c91:	3E 07       	LD      A,07H
2c93:	CD 53 0B    	CALL    0B53H
2c96:	CD D6 2F    	CALL    2FD6H
2c99:	FE 00       	CP      00H
2c9b:	28 05       	JR      Z,0CA2H
2c9d:	3E 09       	LD      A,09H
2c9f:	CD 53 0B    	CALL    0B53H
2ca2:	21 08 78    	LD      HL,7808H
2ca5:	CB 66       	BIT     4,(HL)
2ca7:	20 04       	JR      NZ,0CADH
2ca9:	97          	SUB     A
2caa:	32 8A 7C    	LD      (7C8AH),A
2cad:	21 64 79    	LD      HL,7964H
2cb0:	35          	DEC     (HL)
2cb1:	20 04       	JR      NZ,0CB7H
2cb3:	97          	SUB     A
2cb4:	32 8A 7C    	LD      (7C8AH),A
2cb7:	21 0A 78    	LD      HL,780AH
2cba:	06 08       	LD      B,08H
2cbc:	3E 08       	LD      A,08H
2cbe:	90          	SUB     B
2cbf:	32 65 79    	LD      (7965H),A
2cc2:	E5          	PUSH    HL
2cc3:	21 71 79    	LD      HL,7971H
2cc6:	16 00       	LD      D,00H
2cc8:	5F          	LD      E,A
2cc9:	19          	ADD     HL,DE
2cca:	7E          	LD      A,(HL)
2ccb:	32 A1 78    	LD      (78A1H),A
2cce:	E1          	POP     HL
2ccf:	E5          	PUSH    HL
2cd0:	11 08 00    	LD      DE,0008H
2cd3:	19          	ADD     HL,DE
2cd4:	7E          	LD      A,(HL)
2cd5:	11 F8 FF    	LD      DE,0FFF8H
2cd8:	19          	ADD     HL,DE
2cd9:	CB 7F       	BIT     7,A
2cdb:	CA 0D 2E    	JP      Z,2E0DH
2cde:	F5          	PUSH    AF
2cdf:	3A 87 7C    	LD      A,(7C87H)
2ce2:	FE 03       	CP      03H
2ce4:	38 05       	JR      C,0CEBH
2ce6:	D6 02       	SUB     02H
2ce8:	32 87 7C    	LD      (7C87H),A
2ceb:	F1          	POP     AF
2cec:	CB 77       	BIT     6,A
2cee:	20 69       	JR      NZ,0D59H
2cf0:	CB 6F       	BIT     5,A
2cf2:	20 65       	JR      NZ,0D59H
2cf4:	E5          	PUSH    HL
2cf5:	E5          	PUSH    HL
2cf6:	21 08 78    	LD      HL,7808H
2cf9:	4E          	LD      C,(HL)
2cfa:	11 F8 FF    	LD      DE,0FFF8H
2cfd:	19          	ADD     HL,DE
2cfe:	5E          	LD      E,(HL)
2cff:	23          	INC     HL
2d00:	56          	LD      D,(HL)
2d01:	E1          	POP     HL
2d02:	7E          	LD      A,(HL)
2d03:	93          	SUB     E
2d04:	CB 7F       	BIT     7,A
2d06:	28 02       	JR      Z,0D0AH
2d08:	ED 44       	NEG     
2d0a:	FE 08       	CP      08H
2d0c:	30 4A       	JR      NC,0D58H
2d0e:	23          	INC     HL
2d0f:	7E          	LD      A,(HL)
2d10:	92          	SUB     D
2d11:	20 2A       	JR      NZ,0D3DH
2d13:	11 08 00    	LD      DE,0008H
2d16:	19          	ADD     HL,DE
2d17:	CB 7E       	BIT     7,(HL)
2d19:	11 F8 FF    	LD      DE,0FFF8H
2d1c:	19          	ADD     HL,DE
2d1d:	20 39       	JR      NZ,0D58H
2d1f:	3A 8A 7C    	LD      A,(7C8AH)
2d22:	FE 01       	CP      01H
2d24:	28 32       	JR      Z,0D58H
2d26:	79          	LD      A,C
2d27:	E6 06       	AND     06H
2d29:	FE 06       	CP      06H
2d2b:	28 2B       	JR      Z,0D58H
2d2d:	E5          	PUSH    HL
2d2e:	21 6E 7D    	LD      HL,7D6EH
2d31:	3A 65 79    	LD      A,(7965H)
2d34:	16 00       	LD      D,00H
2d36:	5F          	LD      E,A
2d37:	19          	ADD     HL,DE
2d38:	36 01       	LD      (HL),01H
2d3a:	E1          	POP     HL
2d3b:	18 1B       	JR      0D58H
2d3d:	CB 61       	BIT     4,C
2d3f:	28 17       	JR      Z,0D58H
2d41:	CB 7F       	BIT     7,A
2d43:	28 13       	JR      Z,0D58H
2d45:	ED 44       	NEG     
2d47:	FE 10       	CP      10H
2d49:	30 0D       	JR      NC,0D58H
2d4b:	3A 8A 7C    	LD      A,(7C8AH)
2d4e:	FE 01       	CP      01H
2d50:	20 06       	JR      NZ,0D58H
2d52:	11 08 00    	LD      DE,0008H
2d55:	19          	ADD     HL,DE
2d56:	CB FE       	SET     7,(HL)
2d58:	E1          	POP     HL
2d59:	CD 9F 30    	CALL    309FH
2d5c:	11 08 00    	LD      DE,0008H
2d5f:	19          	ADD     HL,DE
2d60:	CB 76       	BIT     6,(HL)
2d62:	28 0C       	JR      Z,0D70H
2d64:	21 6E 7D    	LD      HL,7D6EH
2d67:	3A 65 79    	LD      A,(7965H)
2d6a:	16 00       	LD      D,00H
2d6c:	5F          	LD      E,A
2d6d:	19          	ADD     HL,DE
2d6e:	36 00       	LD      (HL),00H
2d70:	E1          	POP     HL
2d71:	11 0A 00    	LD      DE,000AH
2d74:	19          	ADD     HL,DE
2d75:	05          	DEC     B
2d76:	C2 BC 2C    	JP      NZ,2CBCH
2d79:	3A 76 7D    	LD      A,(7D76H)
2d7c:	FE 01       	CP      01H
2d7e:	28 5B       	JR      Z,0DDBH
2d80:	3A 87 7C    	LD      A,(7C87H)
2d83:	47          	LD      B,A
2d84:	CD AC 11    	CALL    11ACH
2d87:	CD 3A 2E    	CALL    2E3AH
2d8a:	3A 99 79    	LD      A,(7999H)
2d8d:	FE 01       	CP      01H
2d8f:	28 28       	JR      Z,0DB9H
2d91:	3A 6D 7D    	LD      A,(7D6DH)
2d94:	FE 01       	CP      01H
2d96:	28 47       	JR      Z,0DDFH
2d98:	3A 08 78    	LD      A,(7808H)
2d9b:	E6 06       	AND     06H
2d9d:	FE 06       	CP      06H
2d9f:	20 08       	JR      NZ,0DA9H
2da1:	3A 6A 79    	LD      A,(796AH)
2da4:	FE 01       	CP      01H
2da6:	C2 00 2C    	JP      NZ,2C00H
2da9:	06 08       	LD      B,08H
2dab:	21 6E 7D    	LD      HL,7D6EH
2dae:	7E          	LD      A,(HL)
2daf:	FE 01       	CP      01H
2db1:	28 2C       	JR      Z,0DDFH
2db3:	23          	INC     HL
2db4:	10 F8       	DJNZ    0DAEH
2db6:	C3 00 2C    	JP      2C00H
2db9:	97          	SUB     A
2dba:	32 6D 7D    	LD      (7D6DH),A
2dbd:	CD EF 18    	CALL    18EFH
2dc0:	CD 3B 09    	CALL    093BH
2dc3:	3E 0D       	LD      A,0DH
2dc5:	CD 53 0B    	CALL    0B53H
2dc8:	CD B8 11    	CALL    11B8H
2dcb:	3A 64 7D    	LD      A,(7D64H)
2dce:	FE 01       	CP      01H
2dd0:	21 7F 7D    	LD      HL,7D7FH
2dd3:	28 03       	JR      Z,0DD8H
2dd5:	21 80 7D    	LD      HL,7D80H
2dd8:	36 01       	LD      (HL),01H
2dda:	C9          	RET     
2   :		  	
2ddb:	3E 11       	LD      A,11H
2ddd:	18 02       	JR      0DE1H
2ddf:	3E 0C       	LD      A,0CH
2de1:	CD 3B 09    	CALL    093BH
2de4:	CD 53 0B    	CALL    0B53H
2de7:	CD B8 11    	CALL    11B8H
2dea:	3A 64 7D    	LD      A,(7D64H)
2ded:	FE 01       	CP      01H
2def:	11 62 7A    	LD      DE,7A62H
2df2:	21 7F 7D    	LD      HL,7D7FH
2df5:	28 06       	JR      Z,0DFDH
2df7:	11 28 7B    	LD      DE,7B28H
2dfa:	21 80 7D    	LD      HL,7D80H
2dfd:	36 00       	LD      (HL),00H
2dff:	21 9C 79    	LD      HL,799CH
2e02:	06 C6       	LD      B,0C6H
2e04:	CD 84 11    	CALL    1184H
2e07:	3E 01       	LD      A,01H
2e09:	32 6D 7D    	LD      (7D6DH),A
2e0c:	C9          	RET     

2e0d:	3A 9A 79    	LD      A,(799AH)
2e10:	FE 00       	CP      00H
2e12:	C2 70 2D    	JP      NZ,2D70H
2e15:	3A 65 79    	LD      A,(7965H)
2e18:	21 79 79    	LD      HL,7979H
2e1b:	16 00       	LD      D,00H
2e1d:	5F          	LD      E,A
2e1e:	19          	ADD     HL,DE
2e1f:	35          	DEC     (HL)
2e20:	C2 70 2D    	JP      NZ,2D70H
2e23:	11 08 00    	LD      DE,0008H
2e26:	19          	ADD     HL,DE
2e27:	7E          	LD      A,(HL)
2e28:	11 F8 FF    	LD      DE,0FFF8H
2e2b:	19          	ADD     HL,DE
2e2c:	77          	LD      (HL),A
2e2d:	E1          	POP     HL
2e2e:	E5          	PUSH    HL
2e2f:	CD 92 2B    	CALL    2B92H
2e32:	3E 14       	LD      A,14H
2e34:	CD 53 0B    	CALL    0B53H
2e37:	C3 59 2D    	JP      2D59H
2e3a:	21 00 78    	LD      HL,7800H
2e3d:	4E          	LD      C,(HL)
2e3e:	23          	INC     HL
2e3f:	7E          	LD      A,(HL)
2e40:	11 07 00    	LD      DE,0007H
2e43:	19          	ADD     HL,DE
2e44:	CB 66       	BIT     4,(HL)
2e46:	20 78       	JR      NZ,0EC0H
2e48:	E6 70       	AND     70H
2e4a:	0F          	RRCA    
2e4b:	0F          	RRCA    
2e4c:	0F          	RRCA    
2e4d:	0F          	RRCA    
2e4e:	32 61 79    	LD      (7961H),A
2e51:	5F          	LD      E,A
2e52:	07          	RLCA    
2e53:	07          	RLCA    
2e54:	07          	RLCA    
2e55:	07          	RLCA    
2e56:	07          	RLCA    
2e57:	83          	ADD     A,E
2e58:	16 00       	LD      D,00H
2e5a:	5F          	LD      E,A
2e5b:	21 9C 79    	LD      HL,799CH
2e5e:	19          	ADD     HL,DE
2e5f:	7E          	LD      A,(HL)
2e60:	FE FF       	CP      0FFH
2e62:	28 57       	JR      Z,0EBBH
2e64:	FE 00       	CP      00H
2e66:	23          	INC     HL
2e67:	28 0E       	JR      Z,0E77H
2e69:	7E          	LD      A,(HL)
2e6a:	91          	SUB     C
2e6b:	28 0D       	JR      Z,0E7AH
2e6d:	CB 7F       	BIT     7,A
2e6f:	28 02       	JR      Z,0E73H
2e71:	ED 44       	NEG     
2e73:	FE 04       	CP      04H
2e75:	38 03       	JR      C,0E7AH
2e77:	23          	INC     HL
2e78:	18 E5       	JR      0E5FH
2e7a:	3A 61 79    	LD      A,(7961H)
2e7d:	07          	RLCA    
2e7e:	07          	RLCA    
2e7f:	07          	RLCA    
2e80:	07          	RLCA    
2e81:	16 00       	LD      D,00H
2e83:	5F          	LD      E,A
2e84:	4E          	LD      C,(HL)
2e85:	2B          	DEC     HL
2e86:	36 00       	LD      (HL),00H
2e88:	21 0B 80    	LD      HL,800BH
2e8b:	19          	ADD     HL,DE
2e8c:	ED 5B 5F 79  	LD      DE,(795FH)
2e90:	1A          	LD      A,(DE)
2e91:	13          	INC     DE
2e92:	D5          	PUSH    DE
2e93:	81          	ADD     A,C
2e94:	16 00       	LD      D,00H
2e96:	5F          	LD      E,A
2e97:	CD 37 11    	CALL    1137H
2e9a:	19          	ADD     HL,DE
2e9b:	97          	SUB     A
2e9c:	32 A2 78    	LD      (78A2H),A
2e9f:	3A 63 79    	LD      A,(7963H)
2ea2:	C6 05       	ADD     A,05H
2ea4:	CD EF 18    	CALL    18EFH
2ea7:	D1          	POP     DE
2ea8:	CD 84 30    	CALL    3084H
2eab:	3E 0F       	LD      A,0FH
2ead:	CD 53 0B    	CALL    0B53H
2eb0:	21 9B 79    	LD      HL,799BH
2eb3:	35          	DEC     (HL)
2eb4:	20 05       	JR      NZ,0EBBH
2eb6:	3E 01       	LD      A,01H
2eb8:	32 99 79    	LD      (7999H),A
2ebb:	3A 7D 7D    	LD      A,(7D7DH)
2ebe:	18 03       	JR      0EC3H
2ec0:	3A 7E 7D    	LD      A,(7D7EH)
2ec3:	CD 97 1A    	CALL    1A97H
2ec6:	C9          	RET     

2ec7:	06 05       	LD      B,05H
2ec9:	3A 86 7C    	LD      A,(7C86H)
2ecc:	4F          	LD      C,A
2ecd:	21 6E 78    	LD      HL,786EH
2ed0:	CB 21       	SLA     C
2ed2:	30 39       	JR      NC,0F0DH
2ed4:	7E          	LD      A,(HL)
2ed5:	FE 02       	CP      02H
2ed7:	28 3D       	JR      Z,0F16H
2ed9:	FE 01       	CP      01H
2edb:	20 30       	JR      NZ,0F0DH
2edd:	23          	INC     HL
2ede:	7E          	LD      A,(HL)
2edf:	32 A5 78    	LD      (78A5H),A
2ee2:	23          	INC     HL
2ee3:	5E          	LD      E,(HL)
2ee4:	83          	ADD     A,E
2ee5:	5F          	LD      E,A
2ee6:	23          	INC     HL
2ee7:	56          	LD      D,(HL)
2ee8:	BA          	CP      D
2ee9:	2B          	DEC     HL
2eea:	20 1E       	JR      NZ,0F0AH
2eec:	D5          	PUSH    DE
2eed:	E5          	PUSH    HL
2eee:	11 06 00    	LD      DE,0006H
2ef1:	19          	ADD     HL,DE
2ef2:	5E          	LD      E,(HL)
2ef3:	23          	INC     HL
2ef4:	56          	LD      D,(HL)
2ef5:	EB          	EX      DE,HL
2ef6:	11 55 56    	LD      DE,5655H
2ef9:	CD 84 30    	CALL    3084H
2efc:	E1          	POP     HL
2efd:	D1          	POP     DE
2efe:	2B          	DEC     HL
2eff:	2B          	DEC     HL
2f00:	3E 02       	LD      A,02H
2f02:	CD 53 0B    	CALL    0B53H
2f05:	97          	SUB     A
2f06:	77          	LD      (HL),A
2f07:	23          	INC     HL
2f08:	77          	LD      (HL),A
2f09:	23          	INC     HL
2f0a:	73          	LD      (HL),E
2f0b:	18 14       	JR      0F21H
2f0d:	23          	INC     HL
2f0e:	23          	INC     HL
2f0f:	11 08 00    	LD      DE,0008H
2f12:	19          	ADD     HL,DE
2f13:	10 BB       	DJNZ    0ED0H
2f15:	C9          	RET     

2f16:	23          	INC     HL
2f17:	7E          	LD      A,(HL)
2f18:	23          	INC     HL
2f19:	5E          	LD      E,(HL)
2f1a:	32 A5 78    	LD      (78A5H),A
2f1d:	83          	ADD     A,E
2f1e:	5F          	LD      E,A
2f1f:	18 E9       	JR      0F0AH
2f21:	C5          	PUSH    BC
2f22:	E5          	PUSH    HL
2f23:	7B          	LD      A,E
2f24:	21 A9 2F    	LD      HL,2FA9H
2f27:	16 00       	LD      D,00H
2f29:	58          	LD      E,B
2f2a:	1D          	DEC     E
2f2b:	19          	ADD     HL,DE
2f2c:	5E          	LD      E,(HL)
2f2d:	CD 37 11    	CALL    1137H
2f30:	21 00 80    	LD      HL,8000H
2f33:	19          	ADD     HL,DE
2f34:	16 00       	LD      D,00H
2f36:	5F          	LD      E,A
2f37:	19          	ADD     HL,DE
2f38:	3A A5 78    	LD      A,(78A5H)
2f3b:	CB 7F       	BIT     7,A
2f3d:	20 02       	JR      NZ,0F41H
2f3f:	2B          	DEC     HL
2f40:	2B          	DEC     HL
2f41:	E5          	PUSH    HL
2f42:	21 94 2F    	LD      HL,2F94H
2f45:	22 AA 78    	LD      (78AAH),HL
2f48:	E1          	POP     HL
2f49:	3E 04       	LD      A,04H
2f4b:	32 A0 78    	LD      (78A0H),A
2f4e:	01 02 02    	LD      BC,0202H
2f51:	E5          	PUSH    HL				;Store HL on stack
2f52:	2A AA 78    	LD      HL,(78AAH)		;
2f55:	5E          	LD      E,(HL)			;
2f56:	23          	INC     HL				;
2f57:	56          	LD      D,(HL)			;
2f58:	23          	INC     HL				;
2f59:	22 AA 78    	LD      (78AAH),HL		;
2f5c:	E1          	POP     HL				;
2f5d:	19          	ADD     HL,DE			;
2f5e:	3E EE       	LD      A,0EEH			;Load the inverter color into A (light green)
2f60:	CD 67 11    	CALL    1167H			;GOSUB: DRAW_ELEVATOR
2f63:	3A A0 78    	LD      A,(78A0H)
2f66:	3D          	DEC     A
2f67:	32 A0 78    	LD      (78A0H),A
2f6a:	20 E5       	JR      NZ,0F51H
2f6c:	3E 04       	LD      A,04H
2f6e:	32 A0 78    	LD      (78A0H),A
2f71:	01 09 01    	LD      BC,0109H
2f74:	E5          	PUSH    HL
2f75:	2A AA 78    	LD      HL,(78AAH)
2f78:	5E          	LD      E,(HL)
2f79:	23          	INC     HL
2f7a:	56          	LD      D,(HL)
2f7b:	23          	INC     HL
2f7c:	22 AA 78    	LD      (78AAH),HL
2f7f:	E1          	POP     HL
2f80:	19          	ADD     HL,DE
2f81:	3E EE       	LD      A,0EEH
2f83:	CD 67 11    	CALL    1167H
2f86:	3A A0 78    	LD      A,(78A0H)
2f89:	3D          	DEC     A
2f8a:	32 A0 78    	LD      (78A0H),A
2f8d:	20 E5       	JR      NZ,0F74H
2f8f:	E1          	POP     HL
2f90:	C1          	POP     BC
2f91:	C3 0F 2F    	JP      2F0FH
2f94:	00          	NOP     
2f95:	00          	NOP     
2f96:	D8          	RET     C

2f97:	05          	DEC     B
2f98:	0F          	RRCA    
2f99:	00          	NOP     
2f9a:	28 FA       	JR      Z,0F96H
2f9c:	11 01 FE    	LD      DE,0FE01H
2f9f:	FF          	RST     38H
2fa0:	F4 FF FE    	CALL    P,0FEFFH
2fa3:	FF          	RST     38H
2fa4:	15          	DEC     D
2fa5:	42          	LD      B,D
2fa6:	6F          	LD      L,A
2fa7:	9C          	SBC     A,H
2fa8:	C9          	RET     

2fa9:	CA 9D 70    	JP      Z,709DH
2fac:	43          	LD      B,E
2fad:	16 97       	LD      D,97H
2faf:	C9          	RET     

2fb0:	3A A8 78    	LD      A,(78A8H)
2fb3:	E6 7E       	AND     7EH
2fb5:	B9          	CP      C
2fb6:	20 F6       	JR      NZ,0FAEH
2fb8:	3A A7 78    	LD      A,(78A7H)
2fbb:	E6 7E       	AND     7EH
2fbd:	B9          	CP      C
2fbe:	28 EE       	JR      Z,0FAEH
2fc0:	3E 01       	LD      A,01H
2fc2:	C9          	RET     

2fc3:	3A A8 78    	LD      A,(78A8H)
2fc6:	E6 7E       	AND     7EH
2fc8:	B9          	CP      C
2fc9:	28 E3       	JR      Z,0FAEH
2fcb:	3A A7 78    	LD      A,(78A7H)
2fce:	E6 7E       	AND     7EH
2fd0:	B9          	CP      C
2fd1:	20 DB       	JR      NZ,0FAEH
2fd3:	3E 01       	LD      A,01H
2fd5:	C9          	RET     

2fd6:	3A A8 78    	LD      A,(78A8H)
2fd9:	E6 7E       	AND     7EH
2fdb:	B9          	CP      C
2fdc:	20 D0       	JR      NZ,0FAEH
2fde:	3A A7 78    	LD      A,(78A7H)
2fe1:	E6 7E       	AND     7EH
2fe3:	B9          	CP      C
2fe4:	20 C8       	JR      NZ,0FAEH
2fe6:	3E 01       	LD      A,01H
2fe8:	C9          	RET     

2fe9:	3A 8C 7C    	LD      A,(7C8CH)
2fec:	FE 01       	CP      01H
2fee:	20 05       	JR      NZ,0FF5H
2ff0:	DB 00       	IN      A,(00H)
2ff2:	CB 7F       	BIT     7,A
2ff4:	C0          	RET     NZ

2ff5:	2A 7D 7C    	LD      HL,(7C7DH)
2ff8:	3A 7F 7C    	LD      A,(7C7FH)
2ffb:	3C          	INC     A
2ffc:	32 7F 7C    	LD      (7C7FH),A
2fff:	FE 00       	CP      00H
3000:	78          	LD      A,B
3001:	20 0A       	JR      NZ,000DH
3003:	97          	SUB     A
3004:	32 7F 7C    	LD      (7C7FH),A
3007:	21 0A 77    	LD      HL,770AH
300a:	22 7D 7C    	LD      (7C7DH),HL
300d:	0E 0A       	LD      C,0AH
300f:	06 04       	LD      B,04H
3011:	CD 2D 30    	CALL    302DH
3014:	0E 07       	LD      C,07H
3016:	06 F8       	LD      B,0F8H
3018:	CD 2D 30    	CALL    302DH
301b:	0E 04       	LD      C,04H
301d:	46          	LD      B,(HL)
301e:	23          	INC     HL
301f:	CD 2D 30    	CALL    302DH
3022:	0C          	INC     C
3023:	7E          	LD      A,(HL)
3024:	23          	INC     HL
3025:	47          	LD      B,A
3026:	CD 2D 30    	CALL    302DH
3029:	22 7D 7C    	LD      (7C7DH),HL
302c:	C9          	RET     

302d:	79          	LD      A,C
302e:	D3 06       	OUT     (06H),A
3030:	78          	LD      A,B
3031:	D3 02       	OUT     (02H),A
3033:	C9          	RET     

3034:	F5          	PUSH    AF
3035:	C5          	PUSH    BC
3036:	D5          	PUSH    DE
3037:	E5          	PUSH    HL
3038:	23          	INC     HL
3039:	23          	INC     HL
303a:	4E          	LD      C,(HL)
303b:	23          	INC     HL
303c:	46          	LD      B,(HL)
303d:	23          	INC     HL
303e:	5E          	LD      E,(HL)
303f:	23          	INC     HL
3040:	56          	LD      D,(HL)
3041:	C5          	PUSH    BC
3042:	E1          	POP     HL
3043:	08          	EX      AF,AF'
3044:	1A          	LD      A,(DE)
3045:	4F          	LD      C,A
3046:	13          	INC     DE
3047:	1A          	LD      A,(DE)
3048:	47          	LD      B,A
3049:	13          	INC     DE
304a:	08          	EX      AF,AF'
304b:	D9          	EXX     
304c:	3A A2 78    	LD      A,(78A2H)
304f:	FE 00       	CP      00H
3051:	06 00       	LD      B,00H
3053:	3E 88       	LD      A,88H
3055:	28 0F       	JR      Z,0066H
3057:	05          	DEC     B
3058:	3E 78       	LD      A,78H
305a:	D9          	EXX     
305b:	D5          	PUSH    DE
305c:	16 00       	LD      D,00H
305e:	59          	LD      E,C
305f:	1D          	DEC     E
3060:	CD 37 11    	CALL    1137H
3063:	19          	ADD     HL,DE
3064:	D1          	POP     DE
3065:	D9          	EXX     
3066:	D9          	EXX     
3067:	90          	SUB     B
3068:	D9          	EXX     
3069:	4F          	LD      C,A
306a:	D9          	EXX     
306b:	1A          	LD      A,(DE)
306c:	AE          	XOR     (HL)
306d:	77          	LD      (HL),A
306e:	23          	INC     HL
306f:	13          	INC     DE
3070:	10 F9       	DJNZ    006BH
3072:	08          	EX      AF,AF'
3073:	47          	LD      B,A
3074:	08          	EX      AF,AF'
3075:	E5          	PUSH    HL
3076:	D9          	EXX     
3077:	E1          	POP     HL
3078:	09          	ADD     HL,BC
3079:	E5          	PUSH    HL
307a:	D9          	EXX     
307b:	E1          	POP     HL
307c:	0D          	DEC     C
307d:	20 EC       	JR      NZ,006BH
307f:	E1          	POP     HL
3080:	D1          	POP     DE
3081:	C1          	POP     BC
3082:	F1          	POP     AF
3083:	C9          	RET     

3084:	F5          	PUSH    AF
3085:	C5          	PUSH    BC
3086:	E5          	PUSH    HL
3087:	01 66 78    	LD      BC,7866H
308a:	7D          	LD      A,L
308b:	02          	LD      (BC),A
308c:	03          	INC     BC
308d:	7C          	LD      A,H
308e:	02          	LD      (BC),A
308f:	03          	INC     BC
3090:	7B          	LD      A,E
3091:	02          	LD      (BC),A
3092:	03          	INC     BC
3093:	7A          	LD      A,D
3094:	02          	LD      (BC),A
3095:	21 64 78    	LD      HL,7864H
3098:	CD 34 30    	CALL    3034H
309b:	E1          	POP     HL
309c:	C1          	POP     BC
309d:	F1          	POP     AF
309e:	C9          	RET     

309f:	F5          	PUSH    AF
30a0:	C5          	PUSH    BC
30a1:	D5          	PUSH    DE
30a2:	E5          	PUSH    HL
30a3:	97          	SUB     A
30a4:	32 62 79    	LD      (7962H),A
30a7:	32 8B 7C    	LD      (7C8BH),A
30aa:	11 06 00    	LD      DE,0006H
30ad:	19          	ADD     HL,DE
30ae:	5E          	LD      E,(HL)
30af:	23          	INC     HL
30b0:	56          	LD      D,(HL)
30b1:	2B          	DEC     HL
30b2:	2B          	DEC     HL
30b3:	1A          	LD      A,(DE)
30b4:	32 69 79    	LD      (7969H),A
30b7:	CB 7F       	BIT     7,A
30b9:	C2 4E 31    	JP      NZ,314EH
30bc:	77          	LD      (HL),A
30bd:	13          	INC     DE
30be:	1A          	LD      A,(DE)
30bf:	2B          	DEC     HL
30c0:	77          	LD      (HL),A
30c1:	13          	INC     DE
30c2:	1A          	LD      A,(DE)
30c3:	47          	LD      B,A
30c4:	13          	INC     DE
30c5:	1A          	LD      A,(DE)
30c6:	4F          	LD      C,A
30c7:	D5          	PUSH    DE
30c8:	2B          	DEC     HL
30c9:	56          	LD      D,(HL)
30ca:	2B          	DEC     HL
30cb:	5E          	LD      E,(HL)
30cc:	EB          	EX      DE,HL
30cd:	09          	ADD     HL,BC
30ce:	EB          	EX      DE,HL
30cf:	73          	LD      (HL),E
30d0:	23          	INC     HL
30d1:	72          	LD      (HL),D
30d2:	D1          	POP     DE
30d3:	13          	INC     DE
30d4:	1A          	LD      A,(DE)
30d5:	2B          	DEC     HL
30d6:	2B          	DEC     HL
30d7:	46          	LD      B,(HL)
30d8:	80          	ADD     A,B
30d9:	77          	LD      (HL),A
30da:	13          	INC     DE
30db:	1A          	LD      A,(DE)
30dc:	2B          	DEC     HL
30dd:	46          	LD      B,(HL)
30de:	80          	ADD     A,B
30df:	77          	LD      (HL),A
30e0:	13          	INC     DE
30e1:	1A          	LD      A,(DE)
30e2:	47          	LD      B,A
30e3:	13          	INC     DE
30e4:	1A          	LD      A,(DE)
30e5:	4F          	LD      C,A
30e6:	D5          	PUSH    DE
30e7:	23          	INC     HL
30e8:	23          	INC     HL
30e9:	5E          	LD      E,(HL)
30ea:	23          	INC     HL
30eb:	56          	LD      D,(HL)
30ec:	EB          	EX      DE,HL
30ed:	09          	ADD     HL,BC
30ee:	EB          	EX      DE,HL
30ef:	72          	LD      (HL),D
30f0:	2B          	DEC     HL
30f1:	73          	LD      (HL),E
30f2:	11 07 00    	LD      DE,0007H
30f5:	19          	ADD     HL,DE
30f6:	7E          	LD      A,(HL)
30f7:	CB BF       	RES     7,A
30f9:	32 A2 78    	LD      (78A2H),A
30fc:	11 F7 FF    	LD      DE,0FFF7H
30ff:	19          	ADD     HL,DE
3100:	CD 34 30    	CALL    3034H
3103:	23          	INC     HL
3104:	23          	INC     HL
3105:	5E          	LD      E,(HL)
3106:	23          	INC     HL
3107:	56          	LD      D,(HL)
3108:	EB          	EX      DE,HL
3109:	AF          	XOR     A
310a:	ED 42       	SBC     HL,BC
310c:	EB          	EX      DE,HL
310d:	72          	LD      (HL),D
310e:	2B          	DEC     HL
310f:	73          	LD      (HL),E
3110:	D1          	POP     DE
3111:	13          	INC     DE
3112:	01 04 00    	LD      BC,0004H
3115:	09          	ADD     HL,BC
3116:	73          	LD      (HL),E
3117:	23          	INC     HL
3118:	72          	LD      (HL),D
3119:	E1          	POP     HL
311a:	D1          	POP     DE
311b:	C1          	POP     BC
311c:	F1          	POP     AF
311d:	C9          	RET     

311e:	E5          	PUSH    HL
311f:	3A A1 78    	LD      A,(78A1H)
3122:	CB 7F       	BIT     7,A
3124:	11 27 37    	LD      DE,3727H
3127:	20 0C       	JR      NZ,0135H
3129:	3D          	DEC     A
312a:	07          	RLCA    
312b:	5F          	LD      E,A
312c:	16 00       	LD      D,00H
312e:	21 C3 36    	LD      HL,36C3H
3131:	19          	ADD     HL,DE
3132:	5E          	LD      E,(HL)
3133:	23          	INC     HL
3134:	56          	LD      D,(HL)
3135:	E1          	POP     HL
3136:	7E          	LD      A,(HL)
3137:	CD 9A 36    	CALL    369AH
313a:	E5          	PUSH    HL
313b:	26 00       	LD      H,00H
313d:	07          	RLCA    
313e:	6F          	LD      L,A
313f:	19          	ADD     HL,DE
3140:	5E          	LD      E,(HL)
3141:	23          	INC     HL
3142:	56          	LD      D,(HL)
3143:	CD BB 36    	CALL    36BBH
3146:	E1          	POP     HL
3147:	2B          	DEC     HL
3148:	72          	LD      (HL),D
3149:	2B          	DEC     HL
314a:	73          	LD      (HL),E
314b:	C3 B2 30    	JP      30B2H
314e:	E5          	PUSH    HL
314f:	FE CC       	CP      0CCH
3151:	20 0B       	JR      NZ,015EH
3153:	13          	INC     DE
3154:	26 FF       	LD      H,0FFH
3156:	1A          	LD      A,(DE)
3157:	6F          	LD      L,A
3158:	19          	ADD     HL,DE
3159:	EB          	EX      DE,HL
315a:	E1          	POP     HL
315b:	C3 B3 30    	JP      30B3H
315e:	FE DD       	CP      0DDH
3160:	20 25       	JR      NZ,0187H
3162:	3E 01       	LD      A,01H
3164:	32 AC 78    	LD      (78ACH),A
3167:	CD CC 31    	CALL    31CCH
316a:	23          	INC     HL
316b:	23          	INC     HL
316c:	23          	INC     HL
316d:	46          	LD      B,(HL)
316e:	E1          	POP     HL
316f:	13          	INC     DE
3170:	13          	INC     DE
3171:	B8          	CP      B
3172:	CA B3 30    	JP      Z,30B3H
3175:	CB 77       	BIT     6,A
3177:	28 08       	JR      Z,0181H
3179:	E5          	PUSH    HL
317a:	23          	INC     HL
317b:	23          	INC     HL
317c:	23          	INC     HL
317d:	23          	INC     HL
317e:	CB FE       	SET     7,(HL)
3180:	E1          	POP     HL
3181:	E5          	PUSH    HL
3182:	1B          	DEC     DE
3183:	26 00       	LD      H,00H
3185:	18 CF       	JR      0156H
3187:	FE EE       	CP      0EEH
3189:	C2 BF 36    	JP      NZ,36BFH
318c:	97          	SUB     A
318d:	32 AC 78    	LD      (78ACH),A
3190:	CD CC 31    	CALL    31CCH
3193:	D1          	POP     DE
3194:	23          	INC     HL
3195:	23          	INC     HL
3196:	23          	INC     HL
3197:	CB 77       	BIT     6,A
3199:	20 12       	JR      NZ,01ADH
319b:	CB 7F       	BIT     7,A
319d:	28 22       	JR      Z,01C1H
319f:	77          	LD      (HL),A
31a0:	23          	INC     HL
31a1:	36 00       	LD      (HL),00H
31a3:	FE 84       	CP      84H
31a5:	20 02       	JR      NZ,01A9H
31a7:	36 01       	LD      (HL),01H
31a9:	2B          	DEC     HL
31aa:	C3 1E 31    	JP      311EH
31ad:	3A A1 78    	LD      A,(78A1H)
31b0:	CB 7F       	BIT     7,A
31b2:	C2 19 31    	JP      NZ,3119H
31b5:	CD EF 18    	CALL    18EFH
31b8:	3E 0E       	LD      A,0EH
31ba:	CD 53 0B    	CALL    0B53H
31bd:	3E C0       	LD      A,0C0H
31bf:	18 DE       	JR      019FH
31c1:	3A A1 78    	LD      A,(78A1H)
31c4:	CB 7F       	BIT     7,A
31c6:	C2 19 31    	JP      NZ,3119H
31c9:	97          	SUB     A
31ca:	18 D3       	JR      019FH
31cc:	C5          	PUSH    BC
31cd:	D5          	PUSH    DE
31ce:	E5          	PUSH    HL
31cf:	97          	SUB     A
31d0:	32 66 79    	LD      (7966H),A
31d3:	3C          	INC     A
31d4:	32 62 79    	LD      (7962H),A
31d7:	3A AC 78    	LD      A,(78ACH)
31da:	FE 01       	CP      01H
31dc:	28 05       	JR      Z,01E3H
31de:	3E 01       	LD      A,01H
31e0:	32 8B 7C    	LD      (7C8BH),A
31e3:	3A 8C 7C    	LD      A,(7C8CH)
31e6:	FE 01       	CP      01H
31e8:	20 09       	JR      NZ,01F3H
31ea:	CD D7 21    	CALL    21D7H
31ed:	3A B3 7C    	LD      A,(7CB3H)
31f0:	4F          	LD      C,A
31f1:	18 44       	JR      0237H
31f3:	3A A1 78    	LD      A,(78A1H)
31f6:	CB 7F       	BIT     7,A
31f8:	28 3A       	JR      Z,0234H
31fa:	F3          	DI      
31fb:	3A 62 7D    	LD      A,(7D62H)
31fe:	4F          	LD      C,A
31ff:	3E FF       	LD      A,0FFH
3201:	32 62 7D    	LD      (7D62H),A
3204:	FB          	EI      
3205:	79          	LD      A,C
3206:	2F          	CPL     
3207:	0E 80       	LD      C,80H
3209:	CB 57       	BIT     2,A
320b:	28 04       	JR      Z,0211H
320d:	CB E1       	SET     4,C
320f:	18 26       	JR      0237H
3211:	CB 5F       	BIT     3,A
3213:	28 04       	JR      Z,0219H
3215:	CB D9       	SET     3,C
3217:	18 1E       	JR      0237H
3219:	E6 33       	AND     33H
321b:	28 1A       	JR      Z,0237H
321d:	CB D1       	SET     2,C
321f:	47          	LD      B,A
3220:	E6 03       	AND     03H
3222:	28 06       	JR      Z,022AH
3224:	CB 47       	BIT     0,A
3226:	28 0F       	JR      Z,0237H
3228:	18 06       	JR      0230H
322a:	CB C9       	SET     1,C
322c:	CB 60       	BIT     4,B
322e:	28 07       	JR      Z,0237H
3230:	CB C1       	SET     0,C
3232:	18 03       	JR      0237H
3234:	CD 38 35    	CALL    3538H
3237:	97          	SUB     A
3238:	32 A3 78    	LD      (78A3H),A
323b:	32 A4 78    	LD      (78A4H),A
323e:	11 03 00    	LD      DE,0003H
3241:	19          	ADD     HL,DE
3242:	7E          	LD      A,(HL)
3243:	32 A8 78    	LD      (78A8H),A
3246:	CB 77       	BIT     6,A
3248:	28 04       	JR      Z,024EH
324a:	0E 00       	LD      C,00H
324c:	18 0A       	JR      0258H
324e:	23          	INC     HL
324f:	CB 7E       	BIT     7,(HL)
3251:	CB BE       	RES     7,(HL)
3253:	2B          	DEC     HL
3254:	28 02       	JR      Z,0258H
3256:	0E C0       	LD      C,0C0H
3258:	79          	LD      A,C
3259:	32 A7 78    	LD      (78A7H),A
325c:	11 F8 FF    	LD      DE,0FFF8H
325f:	19          	ADD     HL,DE
3260:	4E          	LD      C,(HL)
3261:	23          	INC     HL
3262:	7E          	LD      A,(HL)
3263:	32 A6 78    	LD      (78A6H),A
3266:	E6 0F       	AND     0FH
3268:	FE 0B       	CP      0BH
326a:	28 1B       	JR      Z,0287H
326c:	3A A8 78    	LD      A,(78A8H)
326f:	CB 67       	BIT     4,A
3271:	20 14       	JR      NZ,0287H
3273:	E6 81       	AND     81H
3275:	5F          	LD      E,A
3276:	3A A7 78    	LD      A,(78A7H)
3279:	E6 7E       	AND     7EH
327b:	FE 06       	CP      06H
327d:	28 08       	JR      Z,0287H
327f:	B3          	OR      E
3280:	E6 87       	AND     87H
3282:	F6 06       	OR      06H
3284:	32 A7 78    	LD      (78A7H),A
3287:	3A 86 7C    	LD      A,(7C86H)
328a:	11 A4 2F    	LD      DE,2FA4H
328d:	06 05       	LD      B,05H
328f:	F5          	PUSH    AF
3290:	1A          	LD      A,(DE)
3291:	91          	SUB     C
3292:	CA DA 33    	JP      Z,33DAH
3295:	FE 0F       	CP      0FH
3297:	CA A1 33    	JP      Z,33A1H
329a:	FE F1       	CP      0F1H
329c:	CA BD 33    	JP      Z,33BDH
329f:	F1          	POP     AF
32a0:	07          	RLCA    
32a1:	13          	INC     DE
32a2:	10 EB       	DJNZ    028FH
32a4:	3A A7 78    	LD      A,(78A7H)
32a7:	CB 4F       	BIT     1,A
32a9:	20 42       	JR      NZ,02EDH
32ab:	CB 8F       	RES     1,A
32ad:	CB 77       	BIT     6,A
32af:	C2 DC 34    	JP      NZ,34DCH
32b2:	CB 6F       	BIT     5,A
32b4:	C2 DC 34    	JP      NZ,34DCH
32b7:	CB 67       	BIT     4,A
32b9:	C2 DC 34    	JP      NZ,34DCH
32bc:	CB 5F       	BIT     3,A
32be:	C2 6E 34    	JP      NZ,346EH
32c1:	CB 57       	BIT     2,A
32c3:	CA DC 34    	JP      Z,34DCH
32c6:	CB 4F       	BIT     1,A
32c8:	32 A7 78    	LD      (78A7H),A
32cb:	CA 5D 33    	JP      Z,335DH
32ce:	3A A4 78    	LD      A,(78A4H)
32d1:	FE 01       	CP      01H
32d3:	3A A7 78    	LD      A,(78A7H)
32d6:	20 15       	JR      NZ,02EDH
32d8:	E5          	PUSH    HL
32d9:	CB 47       	BIT     0,A
32db:	7E          	LD      A,(HL)
32dc:	F5          	PUSH    AF
32dd:	CD 16 35    	CALL    3516H
32e0:	11 04 00    	LD      DE,0004H
32e3:	19          	ADD     HL,DE
32e4:	F1          	POP     AF
32e5:	28 23       	JR      Z,030AH
32e7:	23          	INC     HL
32e8:	BE          	CP      (HL)
32e9:	2B          	DEC     HL
32ea:	20 21       	JR      NZ,030DH
32ec:	E1          	POP     HL
32ed:	3A A1 78    	LD      A,(78A1H)
32f0:	CB 7F       	BIT     7,A
32f2:	20 0E       	JR      NZ,0302H
32f4:	FE 04       	CP      04H
32f6:	28 0A       	JR      Z,0302H
32f8:	3A A7 78    	LD      A,(78A7H)
32fb:	CB 8F       	RES     1,A
32fd:	32 A7 78    	LD      (78A7H),A
3300:	18 5B       	JR      035DH
3302:	3A A7 78    	LD      A,(78A7H)
3305:	CB 97       	RES     2,A
3307:	C3 DC 34    	JP      34DCH
330a:	BE          	CP      (HL)
330b:	28 DF       	JR      Z,02ECH
330d:	C1          	POP     BC
330e:	3A AC 78    	LD      A,(78ACH)
3311:	FE 01       	CP      01H
3313:	CA D9 34    	JP      Z,34D9H
3316:	0E 02       	LD      C,02H
3318:	06 00       	LD      B,00H
331a:	3A A7 78    	LD      A,(78A7H)
331d:	CB 47       	BIT     0,A
331f:	20 04       	JR      NZ,0325H
3321:	0E FE       	LD      C,0FEH
3323:	06 01       	LD      B,01H
3325:	79          	LD      A,C
3326:	32 A5 78    	LD      (78A5H),A
3329:	11 FC FF    	LD      DE,0FFFCH
332c:	19          	ADD     HL,DE
332d:	3A A8 78    	LD      A,(78A8H)
3330:	E6 06       	AND     06H
3332:	FE 06       	CP      06H
3334:	28 06       	JR      Z,033CH
3336:	7E          	LD      A,(HL)
3337:	FE 00       	CP      00H
3339:	C2 D9 34    	JP      NZ,34D9H
333c:	36 02       	LD      (HL),02H
333e:	23          	INC     HL
333f:	3A A5 78    	LD      A,(78A5H)
3342:	77          	LD      (HL),A
3343:	3A A1 78    	LD      A,(78A1H)
3346:	CB 7F       	BIT     7,A
3348:	CA D9 34    	JP      Z,34D9H
334b:	3A A7 78    	LD      A,(78A7H)
334e:	4F          	LD      C,A
334f:	3A A8 78    	LD      A,(78A8H)
3352:	B9          	CP      C
3353:	CA D9 34    	JP      Z,34D9H
3356:	78          	LD      A,B
3357:	CD 53 0B    	CALL    0B53H
335a:	C3 D9 34    	JP      34D9H
335d:	CB 47       	BIT     0,A
335f:	F5          	PUSH    AF
3360:	7E          	LD      A,(HL)
3361:	E6 70       	AND     70H
3363:	0F          	RRCA    
3364:	0F          	RRCA    
3365:	0F          	RRCA    
3366:	0F          	RRCA    
3367:	5F          	LD      E,A
3368:	07          	RLCA    
3369:	83          	ADD     A,E
336a:	07          	RLCA    
336b:	83          	ADD     A,E
336c:	07          	RLCA    
336d:	16 00       	LD      D,00H
336f:	5F          	LD      E,A
3370:	F1          	POP     AF
3371:	2B          	DEC     HL
3372:	4E          	LD      C,(HL)
3373:	20 16       	JR      NZ,038BH
3375:	21 B1 78    	LD      HL,78B1H
3378:	19          	ADD     HL,DE
3379:	7E          	LD      A,(HL)
337a:	FE FF       	CP      0FFH
337c:	CA D9 34    	JP      Z,34D9H
337f:	91          	SUB     C
3380:	CA 02 33    	JP      Z,3302H
3383:	FE FD       	CP      0FDH
3385:	CA 02 33    	JP      Z,3302H
3388:	23          	INC     HL
3389:	18 EE       	JR      0379H
338b:	21 05 79    	LD      HL,7905H
338e:	19          	ADD     HL,DE
338f:	7E          	LD      A,(HL)
3390:	FE FF       	CP      0FFH
3392:	CA D9 34    	JP      Z,34D9H
3395:	91          	SUB     C
3396:	CA 02 33    	JP      Z,3302H
3399:	FE 03       	CP      03H
339b:	CA 02 33    	JP      Z,3302H
339e:	23          	INC     HL
339f:	18 EE       	JR      038FH
33a1:	F1          	POP     AF
33a2:	CB 7F       	BIT     7,A
33a4:	CA A4 32    	JP      Z,32A4H
33a7:	E5          	PUSH    HL
33a8:	CD FB 34    	CALL    34FBH
33ab:	5E          	LD      E,(HL)
33ac:	E1          	POP     HL
33ad:	CD 26 35    	CALL    3526H
33b0:	FE 01       	CP      01H
33b2:	C2 A4 32    	JP      NZ,32A4H
33b5:	3E 01       	LD      A,01H
33b7:	32 A3 78    	LD      (78A3H),A
33ba:	C3 A4 32    	JP      32A4H
33bd:	F1          	POP     AF
33be:	CB 7F       	BIT     7,A
33c0:	CA A4 32    	JP      Z,32A4H
33c3:	E5          	PUSH    HL
33c4:	CD FB 34    	CALL    34FBH
33c7:	23          	INC     HL
33c8:	5E          	LD      E,(HL)
33c9:	E1          	POP     HL
33ca:	CD 26 35    	CALL    3526H
33cd:	FE 01       	CP      01H
33cf:	C2 A4 32    	JP      NZ,32A4H
33d2:	3E 01       	LD      A,01H
33d4:	32 A3 78    	LD      (78A3H),A
33d7:	C3 A4 32    	JP      32A4H
33da:	F1          	POP     AF
33db:	CB 7F       	BIT     7,A
33dd:	CA A4 32    	JP      Z,32A4H
33e0:	E5          	PUSH    HL
33e1:	CD FB 34    	CALL    34FBH
33e4:	11 FA FF    	LD      DE,0FFFAH
33e7:	19          	ADD     HL,DE
33e8:	5E          	LD      E,(HL)
33e9:	23          	INC     HL
33ea:	23          	INC     HL
33eb:	3A A6 78    	LD      A,(78A6H)
33ee:	96          	SUB     (HL)
33ef:	28 35       	JR      Z,0426H
33f1:	CB 7F       	BIT     7,A
33f3:	16 0E       	LD      D,0EH
33f5:	28 04       	JR      Z,03FBH
33f7:	16 08       	LD      D,08H
33f9:	ED 44       	NEG     
33fb:	BA          	CP      D
33fc:	E1          	POP     HL
33fd:	D2 A4 32    	JP      NC,32A4H
3400:	97          	SUB     A
3401:	BB          	CP      E
3402:	CA A4 32    	JP      Z,32A4H
3405:	3A A1 78    	LD      A,(78A1H)
3408:	CB 7F       	BIT     7,A
340a:	28 0D       	JR      Z,0419H
340c:	3A AC 78    	LD      A,(78ACH)
340f:	FE 01       	CP      01H
3411:	CA A4 32    	JP      Z,32A4H
3414:	3E 01       	LD      A,01H
3416:	32 76 7D    	LD      (7D76H),A
3419:	3A A7 78    	LD      A,(78A7H)
341c:	CB 7F       	BIT     7,A
341e:	CA DC 34    	JP      Z,34DCH
3421:	CB F7       	SET     6,A
3423:	C3 DC 34    	JP      34DCH
3426:	3E 01       	LD      A,01H
3428:	32 A4 78    	LD      (78A4H),A
342b:	2B          	DEC     HL
342c:	2B          	DEC     HL
342d:	3A A8 78    	LD      A,(78A8H)
3430:	CB 4F       	BIT     1,A
3432:	28 0F       	JR      Z,0443H
3434:	3E 01       	LD      A,01H
3436:	32 66 79    	LD      (7966H),A
3439:	22 67 79    	LD      (7967H),HL
343c:	E1          	POP     HL
343d:	3A A7 78    	LD      A,(78A7H)
3440:	C3 AD 32    	JP      32ADH
3443:	E1          	POP     HL
3444:	97          	SUB     A
3445:	BB          	CP      E
3446:	3A A7 78    	LD      A,(78A7H)
3449:	CA AD 32    	JP      Z,32ADH
344c:	3A AC 78    	LD      A,(78ACH)
344f:	FE 01       	CP      01H
3451:	3A A7 78    	LD      A,(78A7H)
3454:	CA AD 32    	JP      Z,32ADH
3457:	3A A1 78    	LD      A,(78A1H)
345a:	CB 7F       	BIT     7,A
345c:	28 05       	JR      Z,0463H
345e:	3E 01       	LD      A,01H
3460:	32 76 7D    	LD      (7D76H),A
3463:	3A A7 78    	LD      A,(78A7H)
3466:	CB 7F       	BIT     7,A
3468:	28 72       	JR      Z,04DCH
346a:	CB F7       	SET     6,A
346c:	18 6E       	JR      04DCH
346e:	32 A7 78    	LD      (78A7H),A
3471:	22 6F 79    	LD      (796FH),HL
3474:	3A A3 78    	LD      A,(78A3H)
3477:	FE 01       	CP      01H
3479:	20 5E       	JR      NZ,04D9H
347b:	3A AC 78    	LD      A,(78ACH)
347e:	FE 01       	CP      01H
3480:	28 57       	JR      Z,04D9H
3482:	CD 16 35    	CALL    3516H
3485:	97          	SUB     A
3486:	BE          	CP      (HL)
3487:	20 50       	JR      NZ,04D9H
3489:	36 01       	LD      (HL),01H
348b:	23          	INC     HL
348c:	23          	INC     HL
348d:	3A A1 78    	LD      A,(78A1H)
3490:	CB 7F       	BIT     7,A
3492:	28 05       	JR      Z,0499H
3494:	3E 04       	LD      A,04H
3496:	CD 53 0B    	CALL    0B53H
3499:	3A A6 78    	LD      A,(78A6H)
349c:	96          	SUB     (HL)
349d:	20 06       	JR      NZ,04A5H
349f:	2B          	DEC     HL
34a0:	2B          	DEC     HL
34a1:	36 00       	LD      (HL),00H
34a3:	18 34       	JR      04D9H
34a5:	F5          	PUSH    AF
34a6:	E5          	PUSH    HL
34a7:	2A 6F 79    	LD      HL,(796FH)
34aa:	7E          	LD      A,(HL)
34ab:	2B          	DEC     HL
34ac:	16 00       	LD      D,00H
34ae:	5E          	LD      E,(HL)
34af:	CD 37 11    	CALL    1137H
34b2:	21 38 83    	LD      HL,8338H
34b5:	19          	ADD     HL,DE
34b6:	16 00       	LD      D,00H
34b8:	5F          	LD      E,A
34b9:	19          	ADD     HL,DE
34ba:	11 55 56    	LD      DE,5655H
34bd:	CD 84 30    	CALL    3084H
34c0:	EB          	EX      DE,HL
34c1:	E1          	POP     HL
34c2:	E5          	PUSH    HL
34c3:	01 06 00    	LD      BC,0006H
34c6:	09          	ADD     HL,BC
34c7:	73          	LD      (HL),E
34c8:	23          	INC     HL
34c9:	72          	LD      (HL),D
34ca:	E1          	POP     HL
34cb:	F1          	POP     AF
34cc:	2B          	DEC     HL
34cd:	36 FE       	LD      (HL),0FEH
34cf:	38 02       	JR      C,04D3H
34d1:	36 02       	LD      (HL),02H
34d3:	23          	INC     HL
34d4:	23          	INC     HL
34d5:	3A A6 78    	LD      A,(78A6H)
34d8:	77          	LD      (HL),A
34d9:	3A A7 78    	LD      A,(78A7H)
34dc:	32 A7 78    	LD      (78A7H),A
34df:	3A 66 79    	LD      A,(7966H)
34e2:	FE 01       	CP      01H
34e4:	3A A7 78    	LD      A,(78A7H)
34e7:	20 0E       	JR      NZ,04F7H
34e9:	E6 06       	AND     06H
34eb:	FE 06       	CP      06H
34ed:	3A A7 78    	LD      A,(78A7H)
34f0:	28 05       	JR      Z,04F7H
34f2:	2A 67 79    	LD      HL,(7967H)
34f5:	CB 8E       	RES     1,(HL)
34f7:	E1          	POP     HL
34f8:	D1          	POP     DE
34f9:	C1          	POP     BC
34fa:	C9          	RET     

34fb:	7E          	LD      A,(HL)
34fc:	F5          	PUSH    AF
34fd:	CD 16 35    	CALL    3516H
3500:	F1          	POP     AF
3501:	11 04 00    	LD      DE,0004H
3504:	19          	ADD     HL,DE
3505:	5E          	LD      E,(HL)
3506:	BB          	CP      E
3507:	38 08       	JR      C,0511H
3509:	5F          	LD      E,A
350a:	23          	INC     HL
350b:	7E          	LD      A,(HL)
350c:	23          	INC     HL
350d:	BB          	CP      E
350e:	38 01       	JR      C,0511H
3510:	C9          	RET     

3511:	F1          	POP     AF
3512:	E1          	POP     HL
3513:	C3 A4 32    	JP      32A4H
3516:	3E 05       	LD      A,05H
3518:	90          	SUB     B
3519:	5F          	LD      E,A
351a:	07          	RLCA    
351b:	07          	RLCA    
351c:	83          	ADD     A,E
351d:	07          	RLCA    
351e:	16 00       	LD      D,00H
3520:	5F          	LD      E,A
3521:	21 6E 78    	LD      HL,786EH
3524:	19          	ADD     HL,DE
3525:	C9          	RET     

3526:	C5          	PUSH    BC
3527:	7E          	LD      A,(HL)
3528:	E6 70       	AND     70H
352a:	0F          	RRCA    
352b:	0F          	RRCA    
352c:	0F          	RRCA    
352d:	0F          	RRCA    
352e:	47          	LD      B,A
352f:	04          	INC     B
3530:	7B          	LD      A,E
3531:	0F          	RRCA    
3532:	10 FD       	DJNZ    0531H
3534:	E6 01       	AND     01H
3536:	C1          	POP     BC
3537:	C9          	RET     

3538:	F5          	PUSH    AF
3539:	D5          	PUSH    DE
353a:	E5          	PUSH    HL
353b:	E5          	PUSH    HL
353c:	3A 65 79    	LD      A,(7965H)
353f:	47          	LD      B,A
3540:	21 89 79    	LD      HL,7989H
3543:	16 00       	LD      D,00H
3545:	58          	LD      E,B
3546:	19          	ADD     HL,DE
3547:	35          	DEC     (HL)
3548:	20 32       	JR      NZ,057CH
354a:	3A 69 79    	LD      A,(7969H)
354d:	FE DD       	CP      0DDH
354f:	0E 01       	LD      C,01H
3551:	28 09       	JR      Z,055CH
3553:	11 08 00    	LD      DE,0008H
3556:	19          	ADD     HL,DE
3557:	4E          	LD      C,(HL)
3558:	11 F8 FF    	LD      DE,0FFF8H
355b:	19          	ADD     HL,DE
355c:	71          	LD      (HL),C
355d:	21 71 79    	LD      HL,7971H
3560:	16 00       	LD      D,00H
3562:	58          	LD      E,B
3563:	19          	ADD     HL,DE
3564:	D1          	POP     DE
3565:	7E          	LD      A,(HL)
3566:	FE 01       	CP      01H
3568:	28 1B       	JR      Z,0585H
356a:	FE 02       	CP      02H
356c:	28 21       	JR      Z,058FH
356e:	FE 03       	CP      03H
3570:	28 2F       	JR      Z,05A1H
3572:	FE 04       	CP      04H
3574:	28 6B       	JR      Z,05E1H
3576:	FE 05       	CP      05H
3578:	28 51       	JR      Z,05CBH
357a:	18 FE       	JR      057AH
357c:	E1          	POP     HL
357d:	23          	INC     HL
357e:	23          	INC     HL
357f:	23          	INC     HL
3580:	4E          	LD      C,(HL)
3581:	E1          	POP     HL
3582:	D1          	POP     DE
3583:	F1          	POP     AF
3584:	C9          	RET     

3585:	0E 84       	LD      C,84H
3587:	ED 5F       	LD      A,R
3589:	E6 01       	AND     01H
358b:	B1          	OR      C
358c:	4F          	LD      C,A
358d:	18 F2       	JR      0581H
358f:	0E 84       	LD      C,84H
3591:	ED 5F       	LD      A,R
3593:	E6 11       	AND     11H
3595:	20 04       	JR      NZ,059BH
3597:	0E 88       	LD      C,88H
3599:	18 E6       	JR      0581H
359b:	E6 01       	AND     01H
359d:	B1          	OR      C
359e:	4F          	LD      C,A
359f:	18 E0       	JR      0581H
35a1:	13          	INC     DE
35a2:	13          	INC     DE
35a3:	13          	INC     DE
35a4:	1A          	LD      A,(DE)
35a5:	4F          	LD      C,A
35a6:	E6 06       	AND     06H
35a8:	FE 06       	CP      06H
35aa:	20 15       	JR      NZ,05C1H
35ac:	21 F9 FF    	LD      HL,0FFF9H
35af:	19          	ADD     HL,DE
35b0:	7E          	LD      A,(HL)
35b1:	E6 0F       	AND     0FH
35b3:	FE 0B       	CP      0BH
35b5:	20 CA       	JR      NZ,0581H
35b7:	ED 5F       	LD      A,R
35b9:	E6 02       	AND     02H
35bb:	20 C4       	JR      NZ,0581H
35bd:	0E 84       	LD      C,84H
35bf:	18 02       	JR      05C3H
35c1:	0E 86       	LD      C,86H
35c3:	ED 5F       	LD      A,R
35c5:	E6 01       	AND     01H
35c7:	B1          	OR      C
35c8:	4F          	LD      C,A
35c9:	18 B6       	JR      0581H
35cb:	3E 06       	LD      A,06H
35cd:	32 6B 79    	LD      (796BH),A
35d0:	3E 0E       	LD      A,0EH
35d2:	32 6C 79    	LD      (796CH),A
35d5:	3E 0A       	LD      A,0AH
35d7:	32 6E 79    	LD      (796EH),A
35da:	3E 1E       	LD      A,1EH
35dc:	32 6D 79    	LD      (796DH),A
35df:	18 14       	JR      05F5H
35e1:	3E 02       	LD      A,02H
35e3:	32 6B 79    	LD      (796BH),A
35e6:	3E 04       	LD      A,04H
35e8:	32 6C 79    	LD      (796CH),A
35eb:	3E 0B       	LD      A,0BH
35ed:	32 6E 79    	LD      (796EH),A
35f0:	3E 2D       	LD      A,2DH
35f2:	32 6D 79    	LD      (796DH),A
35f5:	21 FB FF    	LD      HL,0FFFBH
35f8:	19          	ADD     HL,DE
35f9:	06 05       	LD      B,05H
35fb:	11 95 36    	LD      DE,3695H
35fe:	1A          	LD      A,(DE)
35ff:	BE          	CP      (HL)
3600:	28 51       	JR      Z,0653H
3602:	13          	INC     DE
3603:	10 F9       	DJNZ    05FEH
3605:	ED 5F       	LD      A,R
3607:	E6 06       	AND     06H
3609:	28 43       	JR      Z,064EH
360b:	3A 00 78    	LD      A,(7800H)
360e:	96          	SUB     (HL)
360f:	06 01       	LD      B,01H
3611:	30 03       	JR      NC,0616H
3613:	05          	DEC     B
3614:	ED 44       	NEG     
3616:	4F          	LD      C,A
3617:	3A 6D 79    	LD      A,(796DH)
361a:	B9          	CP      C
361b:	38 2A       	JR      C,0647H
361d:	ED 5F       	LD      A,R
361f:	47          	LD      B,A
3620:	11 08 00    	LD      DE,0008H
3623:	19          	ADD     HL,DE
3624:	7E          	LD      A,(HL)
3625:	CB 57       	BIT     2,A
3627:	20 05       	JR      NZ,062EH
3629:	0E 84       	LD      C,84H
362b:	C3 C3 35    	JP      35C3H
362e:	E6 01       	AND     01H
3630:	4F          	LD      C,A
3631:	3A 6E 79    	LD      A,(796EH)
3634:	A0          	AND     B
3635:	20 09       	JR      NZ,0640H
3637:	3E 84       	LD      A,84H
3639:	B1          	OR      C
363a:	EE 01       	XOR     01H
363c:	4F          	LD      C,A
363d:	C3 81 35    	JP      3581H
3640:	3E 84       	LD      A,84H
3642:	B1          	OR      C
3643:	4F          	LD      C,A
3644:	C3 81 35    	JP      3581H
3647:	3E 84       	LD      A,84H
3649:	B0          	OR      B
364a:	4F          	LD      C,A
364b:	C3 81 35    	JP      3581H
364e:	0E 88       	LD      C,88H
3650:	C3 81 35    	JP      3581H
3653:	ED 5F       	LD      A,R
3655:	47          	LD      B,A
3656:	3A 6B 79    	LD      A,(796BH)
3659:	A0          	AND     B
365a:	28 AF       	JR      Z,060BH
365c:	23          	INC     HL
365d:	4E          	LD      C,(HL)
365e:	11 07 00    	LD      DE,0007H
3661:	19          	ADD     HL,DE
3662:	7E          	LD      A,(HL)
3663:	E6 06       	AND     06H
3665:	FE 06       	CP      06H
3667:	20 18       	JR      NZ,0681H
3669:	79          	LD      A,C
366a:	E6 0F       	AND     0FH
366c:	FE 0B       	CP      0BH
366e:	4E          	LD      C,(HL)
366f:	C2 81 35    	JP      NZ,3581H
3672:	ED 5F       	LD      A,R
3674:	47          	LD      B,A
3675:	3A 6C 79    	LD      A,(796CH)
3678:	A0          	AND     B
3679:	C2 81 35    	JP      NZ,3581H
367c:	0E 84       	LD      C,84H
367e:	C3 C3 35    	JP      35C3H
3681:	3A 01 78    	LD      A,(7801H)
3684:	91          	SUB     C
3685:	06 01       	LD      B,01H
3687:	CB 7F       	BIT     7,A
3689:	28 03       	JR      Z,068EH
368b:	05          	DEC     B
368c:	ED 44       	NEG     
368e:	3E 86       	LD      A,86H
3690:	B0          	OR      B
3691:	4F          	LD      C,A
3692:	C3 81 35    	JP      3581H
3695:	15          	DEC     D
3696:	42          	LD      B,D
3697:	6F          	LD      L,A
3698:	9C          	SBC     A,H
3699:	C9          	RET     

369a:	C5          	PUSH    BC
369b:	06 08       	LD      B,08H
369d:	CB 77       	BIT     6,A
369f:	20 17       	JR      NZ,06B8H
36a1:	05          	DEC     B
36a2:	CB 6F       	BIT     5,A
36a4:	20 12       	JR      NZ,06B8H
36a6:	05          	DEC     B
36a7:	CB 67       	BIT     4,A
36a9:	20 0D       	JR      NZ,06B8H
36ab:	05          	DEC     B
36ac:	CB 5F       	BIT     3,A
36ae:	20 08       	JR      NZ,06B8H
36b0:	05          	DEC     B
36b1:	CB 57       	BIT     2,A
36b3:	28 03       	JR      Z,06B8H
36b5:	E6 03       	AND     03H
36b7:	47          	LD      B,A
36b8:	78          	LD      A,B
36b9:	C1          	POP     BC
36ba:	C9          	RET     

36bb:	3E FF       	LD      A,0FFH
36bd:	BA          	CP      D
36be:	C0          	RET     NZ

36bf:	18 FE       	JR      06BFH
36c1:	FF          	RST     38H
36c2:	FF          	RST     38H
36c3:	CD 36 DF    	CALL    0DF36H
36c6:	36 F1       	LD      (HL),0F1H
36c8:	36 03       	LD      (HL),03H
36ca:	37          	SCF     
36cb:	15          	DEC     D
36cc:	37          	SCF     
36cd:	39          	ADD     HL,SP
36ce:	37          	SCF     
36cf:	76          	HALT    
36d0:	37          	SCF     
36d1:	C1          	POP     BC
36d2:	36 C1       	LD      (HL),0C1H
36d4:	36 B3       	LD      (HL),0B3H
36d6:	37          	SCF     
36d7:	C1          	POP     BC
36d8:	36 C1       	LD      (HL),0C1H
36da:	36 CC       	LD      (HL),0CCH
36dc:	37          	SCF     
36dd:	15          	DEC     D
36de:	38 56       	JR      C,0736H
36e0:	38 7F       	JR      C,0761H
36e2:	38 C1       	JR      C,06A5H
36e4:	36 C1       	LD      (HL),0C1H
36e6:	36 A8       	LD      (HL),0A8H
36e8:	38 3B       	JR      C,0725H
36ea:	39          	ADD     HL,SP
36eb:	C1          	POP     BC
36ec:	36 B9       	LD      (HL),0B9H
36ee:	38 FA       	JR      C,06EAH
36f0:	38 5C       	JR      C,074EH
36f2:	39          	ADD     HL,SP
36f3:	99          	SBC     A,C
36f4:	39          	ADD     HL,SP
36f5:	81          	ADD     A,C
36f6:	3A 8A 3A    	LD      A,(3A8AH)
36f9:	D6 39       	SUB     39H
36fb:	C1          	POP     BC
36fc:	36 C1       	LD      (HL),0C1H
36fe:	36 EF       	LD      (HL),0EFH
3700:	39          	ADD     HL,SP
3701:	40          	LD      B,B
3702:	3A 93 3A    	LD      A,(3A93H)
3705:	D0          	RET     NC

3706:	3A A0 3B    	LD      A,(3BA0H)
3709:	A9          	XOR     C
370a:	3B          	DEC     SP
370b:	0D          	DEC     C
370c:	3B          	DEC     SP
370d:	B2          	OR      D
370e:	3B          	DEC     SP
370f:	C1          	POP     BC
3710:	36 26       	LD      (HL),26H
3712:	3B          	DEC     SP
3713:	5F          	LD      E,A
3714:	3B          	DEC     SP
3715:	D3 3B       	OUT     (3BH),A
3717:	10 3C       	DJNZ    0755H
3719:	E0          	RET     PO

371a:	3C          	INC     A
371b:	E9          	JP      (HL)
371c:	3C          	INC     A
371d:	4D          	LD      C,L
371e:	3C          	INC     A
371f:	F2 3C C1    	JP      P,0C13CH
3722:	36 66       	LD      (HL),66H
3724:	3C          	INC     A
3725:	9F          	SBC     A,A
3726:	3C          	INC     A
3727:	13          	INC     DE
3728:	3D          	DEC     A
3729:	50          	LD      D,B
372a:	3D          	DEC     A
372b:	8D          	ADC     A,L
372c:	3D          	DEC     A
372d:	96          	SUB     (HL)
372e:	3D          	DEC     A
372f:	9F          	SBC     A,A
3730:	3D          	DEC     A
3731:	B0          	OR      B
3732:	3D          	DEC     A
3733:	D5          	PUSH    DE
3734:	3D          	DEC     A
3735:	C1          	POP     BC
3736:	36 C1       	LD      (HL),0C1H
3738:	36 4D       	LD      (HL),4DH
373a:	5D          	LD      E,L
373b:	00          	NOP     
373c:	00          	NOP     
373d:	00          	NOP     
373e:	00          	NOP     
373f:	00          	NOP     
3740:	00          	NOP     
3741:	4D          	LD      C,L
3742:	D7          	RST     10H
3743:	FE 68       	CP      68H
3745:	00          	NOP     
3746:	FD 00       	NOP     
3748:	00          	NOP     
3749:	4E          	LD      C,(HL)
374a:	69          	LD      L,C
374b:	FE 68       	CP      68H
374d:	00          	NOP     
374e:	FD 00       	NOP     
3750:	00          	NOP     
3751:	4E          	LD      C,(HL)
3752:	FB          	EI      
3753:	FE 68       	CP      68H
3755:	00          	NOP     
3756:	FD 00       	NOP     
3758:	00          	NOP     
3759:	4F          	LD      C,A
375a:	8D          	ADC     A,L
375b:	FE 68       	CP      68H
375d:	00          	NOP     
375e:	FD 00       	NOP     
3760:	00          	NOP     
3761:	50          	LD      D,B
3762:	1F          	RRA     
3763:	FE 68       	CP      68H
3765:	00          	NOP     
3766:	FD 00       	NOP     
3768:	00          	NOP     
3769:	DD 03       	INC     BC
376b:	CC D5 4D    	CALL    Z,4DD5H
376e:	5D          	LD      E,L
376f:	00          	NOP     
3770:	00          	NOP     
3771:	00          	NOP     
3772:	00          	NOP     
3773:	00          	NOP     
3774:	00          	NOP     
3775:	EE 4D       	XOR     4DH
3777:	5D          	LD      E,L
3778:	00          	NOP     
3779:	00          	NOP     
377a:	00          	NOP     
377b:	00          	NOP     
377c:	00          	NOP     
377d:	00          	NOP     
377e:	4D          	LD      C,L
377f:	D7          	RST     10H
3780:	01 98 00    	LD      BC,0098H
3783:	03          	INC     BC
3784:	FE 68       	CP      68H
3786:	4E          	LD      C,(HL)
3787:	69          	LD      L,C
3788:	01 98 00    	LD      BC,0098H
378b:	03          	INC     BC
378c:	FE 68       	CP      68H
378e:	4E          	LD      C,(HL)
378f:	FB          	EI      
3790:	01 98 00    	LD      BC,0098H
3793:	03          	INC     BC
3794:	FE 68       	CP      68H
3796:	4F          	LD      C,A
3797:	8D          	ADC     A,L
3798:	01 98 00    	LD      BC,0098H
379b:	03          	INC     BC
379c:	FE 68       	CP      68H
379e:	50          	LD      D,B
379f:	1F          	RRA     
37a0:	01 98 00    	LD      BC,0098H
37a3:	03          	INC     BC
37a4:	FE 68       	CP      68H
37a6:	DD 03       	INC     BC
37a8:	CC D5 4D    	CALL    Z,4DD5H
37ab:	5D          	LD      E,L
37ac:	00          	NOP     
37ad:	00          	NOP     
37ae:	00          	NOP     
37af:	00          	NOP     
37b0:	00          	NOP     
37b1:	00          	NOP     
37b2:	EE 42       	XOR     42H
37b4:	D7          	RST     10H
37b5:	00          	NOP     
37b6:	00          	NOP     
37b7:	00          	NOP     
37b8:	00          	NOP     
37b9:	00          	NOP     
37ba:	00          	NOP     
37bb:	4C          	LD      C,H
37bc:	E3          	EX      (SP),HL
37bd:	00          	NOP     
37be:	00          	NOP     
37bf:	00          	NOP     
37c0:	00          	NOP     
37c1:	00          	NOP     
37c2:	00          	NOP     
37c3:	4C          	LD      C,H
37c4:	E3          	EX      (SP),HL
37c5:	00          	NOP     
37c6:	00          	NOP     
37c7:	00          	NOP     
37c8:	00          	NOP     
37c9:	00          	NOP     
37ca:	00          	NOP     
37cb:	EE 51       	XOR     51H
37cd:	2B          	DEC     HL
37ce:	00          	NOP     
37cf:	00          	NOP     
37d0:	00          	NOP     
37d1:	00          	NOP     
37d2:	00          	NOP     
37d3:	00          	NOP     
37d4:	42          	LD      B,D
37d5:	D7          	RST     10H
37d6:	00          	NOP     
37d7:	00          	NOP     
37d8:	00          	NOP     
37d9:	00          	NOP     
37da:	00          	NOP     
37db:	00          	NOP     
37dc:	42          	LD      B,D
37dd:	D7          	RST     10H
37de:	00          	NOP     
37df:	00          	NOP     
37e0:	00          	NOP     
37e1:	00          	NOP     
37e2:	00          	NOP     
37e3:	00          	NOP     
37e4:	51          	LD      D,C
37e5:	2B          	DEC     HL
37e6:	00          	NOP     
37e7:	00          	NOP     
37e8:	00          	NOP     
37e9:	00          	NOP     
37ea:	00          	NOP     
37eb:	00          	NOP     
37ec:	42          	LD      B,D
37ed:	D7          	RST     10H
37ee:	00          	NOP     
37ef:	00          	NOP     
37f0:	00          	NOP     
37f1:	00          	NOP     
37f2:	00          	NOP     
37f3:	00          	NOP     
37f4:	51          	LD      D,C
37f5:	2B          	DEC     HL
37f6:	00          	NOP     
37f7:	00          	NOP     
37f8:	00          	NOP     
37f9:	00          	NOP     
37fa:	00          	NOP     
37fb:	00          	NOP     
37fc:	42          	LD      B,D
37fd:	D7          	RST     10H
37fe:	00          	NOP     
37ff:	00          	NOP     
3800:	00          	NOP     
3801:	00          	NOP     
3802:	00          	NOP     
3803:	00          	NOP     
3804:	42          	LD      B,D
3805:	D7          	RST     10H
3806:	00          	NOP     
3807:	00          	NOP     
3808:	00          	NOP     
3809:	00          	NOP     
380a:	00          	NOP     
380b:	00          	NOP     
380c:	51          	LD      D,C
380d:	2B          	DEC     HL
380e:	00          	NOP     
380f:	00          	NOP     
3810:	00          	NOP     
3811:	00          	NOP     
3812:	00          	NOP     
3813:	00          	NOP     
3814:	EE 50       	XOR     50H
3816:	B1          	OR      C
3817:	00          	NOP     
3818:	00          	NOP     
3819:	00          	NOP     
381a:	00          	NOP     
381b:	00          	NOP     
381c:	00          	NOP     
381d:	42          	LD      B,D
381e:	D7          	RST     10H
381f:	00          	NOP     
3820:	00          	NOP     
3821:	00          	NOP     
3822:	00          	NOP     
3823:	00          	NOP     
3824:	00          	NOP     
3825:	42          	LD      B,D
3826:	D7          	RST     10H
3827:	00          	NOP     
3828:	00          	NOP     
3829:	00          	NOP     
382a:	00          	NOP     
382b:	00          	NOP     
382c:	00          	NOP     
382d:	42          	LD      B,D
382e:	D7          	RST     10H
382f:	00          	NOP     
3830:	00          	NOP     
3831:	00          	NOP     
3832:	00          	NOP     
3833:	00          	NOP     
3834:	00          	NOP     
3835:	42          	LD      B,D
3836:	D7          	RST     10H
3837:	00          	NOP     
3838:	00          	NOP     
3839:	00          	NOP     
383a:	00          	NOP     
383b:	00          	NOP     
383c:	00          	NOP     
383d:	42          	LD      B,D
383e:	D7          	RST     10H
383f:	00          	NOP     
3840:	00          	NOP     
3841:	00          	NOP     
3842:	00          	NOP     
3843:	00          	NOP     
3844:	00          	NOP     
3845:	50          	LD      D,B
3846:	B1          	OR      C
3847:	00          	NOP     
3848:	00          	NOP     
3849:	00          	NOP     
384a:	00          	NOP     
384b:	00          	NOP     
384c:	00          	NOP     
384d:	4C          	LD      C,H
384e:	69          	LD      L,C
384f:	00          	NOP     
3850:	00          	NOP     
3851:	00          	NOP     
3852:	00          	NOP     
3853:	00          	NOP     
3854:	00          	NOP     
3855:	EE 52       	XOR     52H
3857:	90          	SUB     B
3858:	FE 68       	CP      68H
385a:	00          	NOP     
385b:	FD 00       	NOP     
385d:	00          	NOP     
385e:	53          	LD      D,E
385f:	34          	INC     (HL)
3860:	FE 68       	CP      68H
3862:	00          	NOP     
3863:	FD 00       	NOP     
3865:	00          	NOP     
3866:	52          	LD      D,D
3867:	10 FE       	DJNZ    0867H
3869:	68          	LD      L,B
386a:	00          	NOP     
386b:	FD 00       	NOP     
386d:	00          	NOP     
386e:	53          	LD      D,E
386f:	D8          	RET     C

3870:	FE 68       	CP      68H
3872:	00          	NOP     
3873:	FD 00       	NOP     
3875:	00          	NOP     
3876:	54          	LD      D,H
3877:	58          	LD      E,B
3878:	FE 68       	CP      68H
387a:	00          	NOP     
387b:	FD 00       	NOP     
387d:	00          	NOP     
387e:	EE 52       	XOR     52H
3880:	90          	SUB     B
3881:	01 98 00    	LD      BC,0098H
3884:	03          	INC     BC
3885:	FE 68       	CP      68H
3887:	53          	LD      D,E
3888:	34          	INC     (HL)
3889:	01 98 00    	LD      BC,0098H
388c:	03          	INC     BC
388d:	FE 68       	CP      68H
388f:	52          	LD      D,D
3890:	10 01       	DJNZ    0893H
3892:	98          	SBC     A,B
3893:	00          	NOP     
3894:	03          	INC     BC
3895:	FE 68       	CP      68H
3897:	53          	LD      D,E
3898:	D8          	RET     C

3899:	01 98 00    	LD      BC,0098H
389c:	03          	INC     BC
389d:	FE 68       	CP      68H
389f:	54          	LD      D,H
38a0:	58          	LD      E,B
38a1:	01 98 00    	LD      BC,0098H
38a4:	03          	INC     BC
38a5:	FE 68       	CP      68H
38a7:	EE 42       	XOR     42H
38a9:	D7          	RST     10H
38aa:	00          	NOP     
38ab:	00          	NOP     
38ac:	00          	NOP     
38ad:	00          	NOP     
38ae:	00          	NOP     
38af:	00          	NOP     
38b0:	42          	LD      B,D
38b1:	D7          	RST     10H
38b2:	00          	NOP     
38b3:	00          	NOP     
38b4:	00          	NOP     
38b5:	00          	NOP     
38b6:	00          	NOP     
38b7:	00          	NOP     
38b8:	EE 55       	XOR     55H
38ba:	DB 00       	IN      A,(00H)
38bc:	00          	NOP     
38bd:	00          	NOP     
38be:	00          	NOP     
38bf:	00          	NOP     
38c0:	00          	NOP     
38c1:	42          	LD      B,D
38c2:	D7          	RST     10H
38c3:	00          	NOP     
38c4:	00          	NOP     
38c5:	00          	NOP     
38c6:	00          	NOP     
38c7:	00          	NOP     
38c8:	00          	NOP     
38c9:	55          	LD      D,L
38ca:	DB 00       	IN      A,(00H)
38cc:	00          	NOP     
38cd:	00          	NOP     
38ce:	00          	NOP     
38cf:	00          	NOP     
38d0:	00          	NOP     
38d1:	42          	LD      B,D
38d2:	D7          	RST     10H
38d3:	00          	NOP     
38d4:	00          	NOP     
38d5:	00          	NOP     
38d6:	00          	NOP     
38d7:	00          	NOP     
38d8:	00          	NOP     
38d9:	42          	LD      B,D
38da:	D7          	RST     10H
38db:	00          	NOP     
38dc:	00          	NOP     
38dd:	00          	NOP     
38de:	00          	NOP     
38df:	00          	NOP     
38e0:	00          	NOP     
38e1:	55          	LD      D,L
38e2:	DB 00       	IN      A,(00H)
38e4:	00          	NOP     
38e5:	00          	NOP     
38e6:	00          	NOP     
38e7:	00          	NOP     
38e8:	00          	NOP     
38e9:	42          	LD      B,D
38ea:	D7          	RST     10H
38eb:	00          	NOP     
38ec:	00          	NOP     
38ed:	00          	NOP     
38ee:	00          	NOP     
38ef:	00          	NOP     
38f0:	00          	NOP     
38f1:	55          	LD      D,L
38f2:	DB 00       	IN      A,(00H)
38f4:	00          	NOP     
38f5:	00          	NOP     
38f6:	00          	NOP     
38f7:	00          	NOP     
38f8:	00          	NOP     
38f9:	EE 55       	XOR     55H
38fb:	70          	LD      (HL),B
38fc:	00          	NOP     
38fd:	00          	NOP     
38fe:	00          	NOP     
38ff:	00          	NOP     
3900:	00          	NOP     
3901:	00          	NOP     
3902:	42          	LD      B,D
3903:	D7          	RST     10H
3904:	00          	NOP     
3905:	00          	NOP     
3906:	00          	NOP     
3907:	00          	NOP     
3908:	00          	NOP     
3909:	00          	NOP     
390a:	42          	LD      B,D
390b:	D7          	RST     10H
390c:	00          	NOP     
390d:	00          	NOP     
390e:	00          	NOP     
390f:	00          	NOP     
3910:	00          	NOP     
3911:	00          	NOP     
3912:	42          	LD      B,D
3913:	D7          	RST     10H
3914:	00          	NOP     
3915:	00          	NOP     
3916:	00          	NOP     
3917:	00          	NOP     
3918:	00          	NOP     
3919:	00          	NOP     
391a:	42          	LD      B,D
391b:	D7          	RST     10H
391c:	00          	NOP     
391d:	00          	NOP     
391e:	00          	NOP     
391f:	00          	NOP     
3920:	00          	NOP     
3921:	00          	NOP     
3922:	42          	LD      B,D
3923:	D7          	RST     10H
3924:	00          	NOP     
3925:	00          	NOP     
3926:	00          	NOP     
3927:	00          	NOP     
3928:	00          	NOP     
3929:	00          	NOP     
392a:	55          	LD      D,L
392b:	70          	LD      (HL),B
392c:	00          	NOP     
392d:	00          	NOP     
392e:	00          	NOP     
392f:	00          	NOP     
3930:	00          	NOP     
3931:	00          	NOP     
3932:	51          	LD      D,C
3933:	A5          	AND     L
3934:	00          	NOP     
3935:	00          	NOP     
3936:	00          	NOP     
3937:	00          	NOP     
3938:	00          	NOP     
3939:	00          	NOP     
393a:	EE 54       	XOR     54H
393c:	D8          	RET     C

393d:	00          	NOP     
393e:	00          	NOP     
393f:	00          	NOP     
3940:	00          	NOP     
3941:	00          	NOP     
3942:	00          	NOP     
3943:	42          	LD      B,D
3944:	D7          	RST     10H
3945:	00          	NOP     
3946:	00          	NOP     
3947:	00          	NOP     
3948:	00          	NOP     
3949:	00          	NOP     
394a:	00          	NOP     
394b:	42          	LD      B,D
394c:	D7          	RST     10H
394d:	00          	NOP     
394e:	00          	NOP     
394f:	00          	NOP     
3950:	00          	NOP     
3951:	00          	NOP     
3952:	00          	NOP     
3953:	54          	LD      D,H
3954:	D8          	RET     C

3955:	00          	NOP     
3956:	00          	NOP     
3957:	00          	NOP     
3958:	00          	NOP     
3959:	00          	NOP     
395a:	00          	NOP     
395b:	EE 5C       	XOR     5CH
395d:	74          	LD      (HL),H
395e:	00          	NOP     
395f:	00          	NOP     
3960:	00          	NOP     
3961:	00          	NOP     
3962:	00          	NOP     
3963:	00          	NOP     
3964:	5F          	LD      E,A
3965:	C0          	RET     NZ

3966:	FE 68       	CP      68H
3968:	00          	NOP     
3969:	FD 00       	NOP     
396b:	00          	NOP     
396c:	5D          	LD      E,L
396d:	0C          	INC     C
396e:	FE 68       	CP      68H
3970:	00          	NOP     
3971:	FD 00       	NOP     
3973:	00          	NOP     
3974:	5D          	LD      E,L
3975:	C2 FE 68    	JP      NZ,68FEH
3978:	00          	NOP     
3979:	FD 00       	NOP     
397b:	00          	NOP     
397c:	5E          	LD      E,(HL)
397d:	78          	LD      A,B
397e:	FE 68       	CP      68H
3980:	00          	NOP     
3981:	FD 00       	NOP     
3983:	00          	NOP     
3984:	5F          	LD      E,A
3985:	2E FE       	LD      L,0FEH
3987:	68          	LD      L,B
3988:	00          	NOP     
3989:	FD 00       	NOP     
398b:	00          	NOP     
398c:	DD 03       	INC     BC
398e:	CC D5 5C    	CALL    Z,5CD5H
3991:	74          	LD      (HL),H
3992:	00          	NOP     
3993:	00          	NOP     
3994:	00          	NOP     
3995:	00          	NOP     
3996:	00          	NOP     
3997:	00          	NOP     
3998:	EE 5C       	XOR     5CH
399a:	74          	LD      (HL),H
399b:	00          	NOP     
399c:	00          	NOP     
399d:	00          	NOP     
399e:	00          	NOP     
399f:	00          	NOP     
39a0:	00          	NOP     
39a1:	5F          	LD      E,A
39a2:	C0          	RET     NZ

39a3:	01 98 00    	LD      BC,0098H
39a6:	03          	INC     BC
39a7:	FE 68       	CP      68H
39a9:	5D          	LD      E,L
39aa:	0C          	INC     C
39ab:	01 98 00    	LD      BC,0098H
39ae:	03          	INC     BC
39af:	FE 68       	CP      68H
39b1:	5D          	LD      E,L
39b2:	C2 01 98    	JP      NZ,9801H
39b5:	00          	NOP     
39b6:	03          	INC     BC
39b7:	FE 68       	CP      68H
39b9:	5E          	LD      E,(HL)
39ba:	78          	LD      A,B
39bb:	01 98 00    	LD      BC,0098H
39be:	03          	INC     BC
39bf:	FE 68       	CP      68H
39c1:	5F          	LD      E,A
39c2:	2E 01       	LD      L,01H
39c4:	98          	SBC     A,B
39c5:	00          	NOP     
39c6:	03          	INC     BC
39c7:	FE 68       	CP      68H
39c9:	DD 03       	INC     BC
39cb:	CC D5 5C    	CALL    Z,5CD5H
39ce:	74          	LD      (HL),H
39cf:	00          	NOP     
39d0:	00          	NOP     
39d1:	00          	NOP     
39d2:	00          	NOP     
39d3:	00          	NOP     
39d4:	00          	NOP     
39d5:	EE 42       	XOR     42H
39d7:	D7          	RST     10H
39d8:	00          	NOP     
39d9:	00          	NOP     
39da:	00          	NOP     
39db:	00          	NOP     
39dc:	00          	NOP     
39dd:	00          	NOP     
39de:	5B          	LD      E,E
39df:	DC 00 00    	CALL    C,0000H
39e2:	00          	NOP     
39e3:	00          	NOP     
39e4:	00          	NOP     
39e5:	00          	NOP     
39e6:	5B          	LD      E,E
39e7:	DC 00 00    	CALL    C,0000H
39ea:	00          	NOP     
39eb:	00          	NOP     
39ec:	00          	NOP     
39ed:	00          	NOP     
39ee:	EE 60       	XOR     60H
39f0:	76          	HALT    
39f1:	00          	NOP     
39f2:	00          	NOP     
39f3:	00          	NOP     
39f4:	00          	NOP     
39f5:	00          	NOP     
39f6:	00          	NOP     
39f7:	42          	LD      B,D
39f8:	D7          	RST     10H
39f9:	00          	NOP     
39fa:	00          	NOP     
39fb:	00          	NOP     
39fc:	00          	NOP     
39fd:	00          	NOP     
39fe:	00          	NOP     
39ff:	42          	LD      B,D
3a00:	D7          	RST     10H
3a01:	00          	NOP     
3a02:	00          	NOP     
3a03:	00          	NOP     
3a04:	00          	NOP     
3a05:	00          	NOP     
3a06:	00          	NOP     
3a07:	60          	LD      H,B
3a08:	76          	HALT    
3a09:	00          	NOP     
3a0a:	00          	NOP     
3a0b:	00          	NOP     
3a0c:	00          	NOP     
3a0d:	00          	NOP     
3a0e:	00          	NOP     
3a0f:	42          	LD      B,D
3a10:	D7          	RST     10H
3a11:	00          	NOP     
3a12:	00          	NOP     
3a13:	00          	NOP     
3a14:	00          	NOP     
3a15:	00          	NOP     
3a16:	00          	NOP     
3a17:	42          	LD      B,D
3a18:	D7          	RST     10H
3a19:	00          	NOP     
3a1a:	00          	NOP     
3a1b:	00          	NOP     
3a1c:	00          	NOP     
3a1d:	00          	NOP     
3a1e:	00          	NOP     
3a1f:	60          	LD      H,B
3a20:	76          	HALT    
3a21:	00          	NOP     
3a22:	00          	NOP     
3a23:	00          	NOP     
3a24:	00          	NOP     
3a25:	00          	NOP     
3a26:	00          	NOP     
3a27:	42          	LD      B,D
3a28:	D7          	RST     10H
3a29:	00          	NOP     
3a2a:	00          	NOP     
3a2b:	00          	NOP     
3a2c:	00          	NOP     
3a2d:	00          	NOP     
3a2e:	00          	NOP     
3a2f:	42          	LD      B,D
3a30:	D7          	RST     10H
3a31:	00          	NOP     
3a32:	00          	NOP     
3a33:	00          	NOP     
3a34:	00          	NOP     
3a35:	00          	NOP     
3a36:	00          	NOP     
3a37:	60          	LD      H,B
3a38:	76          	HALT    
3a39:	00          	NOP     
3a3a:	00          	NOP     
3a3b:	00          	NOP     
3a3c:	00          	NOP     
3a3d:	00          	NOP     
3a3e:	00          	NOP     
3a3f:	EE 61       	XOR     61H
3a41:	0E 00       	LD      C,00H
3a43:	00          	NOP     
3a44:	00          	NOP     
3a45:	00          	NOP     
3a46:	00          	NOP     
3a47:	00          	NOP     
3a48:	42          	LD      B,D
3a49:	D7          	RST     10H
3a4a:	00          	NOP     
3a4b:	00          	NOP     
3a4c:	00          	NOP     
3a4d:	00          	NOP     
3a4e:	00          	NOP     
3a4f:	00          	NOP     
3a50:	42          	LD      B,D
3a51:	D7          	RST     10H
3a52:	00          	NOP     
3a53:	00          	NOP     
3a54:	00          	NOP     
3a55:	00          	NOP     
3a56:	00          	NOP     
3a57:	00          	NOP     
3a58:	42          	LD      B,D
3a59:	D7          	RST     10H
3a5a:	00          	NOP     
3a5b:	00          	NOP     
3a5c:	00          	NOP     
3a5d:	00          	NOP     
3a5e:	00          	NOP     
3a5f:	00          	NOP     
3a60:	42          	LD      B,D
3a61:	D7          	RST     10H
3a62:	00          	NOP     
3a63:	00          	NOP     
3a64:	00          	NOP     
3a65:	00          	NOP     
3a66:	00          	NOP     
3a67:	00          	NOP     
3a68:	42          	LD      B,D
3a69:	D7          	RST     10H
3a6a:	00          	NOP     
3a6b:	00          	NOP     
3a6c:	00          	NOP     
3a6d:	00          	NOP     
3a6e:	00          	NOP     
3a6f:	00          	NOP     
3a70:	61          	LD      H,C
3a71:	0E 00       	LD      C,00H
3a73:	00          	NOP     
3a74:	00          	NOP     
3a75:	00          	NOP     
3a76:	00          	NOP     
3a77:	00          	NOP     
3a78:	5B          	LD      E,E
3a79:	44          	LD      B,H
3a7a:	00          	NOP     
3a7b:	00          	NOP     
3a7c:	00          	NOP     
3a7d:	00          	NOP     
3a7e:	00          	NOP     
3a7f:	00          	NOP     
3a80:	EE 61       	XOR     61H
3a82:	A6          	AND     (HL)
3a83:	FF          	RST     38H
3a84:	FE FE       	CP      0FEH
3a86:	00          	NOP     
3a87:	00          	NOP     
3a88:	00          	NOP     
3a89:	EE 61       	XOR     61H
3a8b:	A6          	AND     (HL)
3a8c:	00          	NOP     
3a8d:	02          	LD      (BC),A
3a8e:	02          	LD      (BC),A
3a8f:	00          	NOP     
3a90:	FF          	RST     38H
3a91:	FE EE       	CP      0EEH
3a93:	63          	LD      H,E
3a94:	CA 00 00    	JP      Z,0000H
3a97:	00          	NOP     
3a98:	00          	NOP     
3a99:	00          	NOP     
3a9a:	00          	NOP     
3a9b:	66          	LD      H,(HL)
3a9c:	A4          	AND     H
3a9d:	FE 68       	CP      68H
3a9f:	00          	NOP     
3aa0:	FD FF       	RST     38H
3aa2:	78          	LD      A,B
3aa3:	64          	LD      H,H
3aa4:	44          	LD      B,H
3aa5:	FE 68       	CP      68H
3aa7:	00          	NOP     
3aa8:	FD 00       	NOP     
3aaa:	00          	NOP     
3aab:	64          	LD      H,H
3aac:	D6 FE       	SUB     0FEH
3aae:	68          	LD      L,B
3aaf:	00          	NOP     
3ab0:	FD 00       	NOP     
3ab2:	00          	NOP     
3ab3:	65          	LD      H,L
3ab4:	70          	LD      (HL),B
3ab5:	FE 68       	CP      68H
3ab7:	00          	NOP     
3ab8:	FD 00       	NOP     
3aba:	00          	NOP     
3abb:	66          	LD      H,(HL)
3abc:	0A          	LD      A,(BC)
3abd:	FE 68       	CP      68H
3abf:	00          	NOP     
3ac0:	FD 00       	NOP     
3ac2:	00          	NOP     
3ac3:	DD 03       	INC     BC
3ac5:	CC D5 63    	CALL    Z,63D5H
3ac8:	CA 00 00    	JP      Z,0000H
3acb:	00          	NOP     
3acc:	00          	NOP     
3acd:	00          	NOP     
3ace:	00          	NOP     
3acf:	EE 63       	XOR     63H
3ad1:	CA 00 00    	JP      Z,0000H
3ad4:	00          	NOP     
3ad5:	00          	NOP     
3ad6:	00          	NOP     
3ad7:	00          	NOP     
3ad8:	66          	LD      H,(HL)
3ad9:	A4          	AND     H
3ada:	01 98 00    	LD      BC,0098H
3add:	03          	INC     BC
3ade:	FE 68       	CP      68H
3ae0:	64          	LD      H,H
3ae1:	44          	LD      B,H
3ae2:	01 98 00    	LD      BC,0098H
3ae5:	03          	INC     BC
3ae6:	FE 68       	CP      68H
3ae8:	64          	LD      H,H
3ae9:	D6 01       	SUB     01H
3aeb:	98          	SBC     A,B
3aec:	00          	NOP     
3aed:	03          	INC     BC
3aee:	FD E0       	RET     PO

3af0:	65          	LD      H,L
3af1:	70          	LD      (HL),B
3af2:	01 98 00    	LD      BC,0098H
3af5:	03          	INC     BC
3af6:	FD E0       	RET     PO

3af8:	66          	LD      H,(HL)
3af9:	0A          	LD      A,(BC)
3afa:	01 98 00    	LD      BC,0098H
3afd:	03          	INC     BC
3afe:	FD E0       	RET     PO

3b00:	DD 03       	INC     BC
3b02:	CC D5 63    	CALL    Z,63D5H
3b05:	CA 00 00    	JP      Z,0000H
3b08:	00          	NOP     
3b09:	00          	NOP     
3b0a:	00          	NOP     
3b0b:	00          	NOP     
3b0c:	EE 42       	XOR     42H
3b0e:	D7          	RST     10H
3b0f:	00          	NOP     
3b10:	00          	NOP     
3b11:	00          	NOP     
3b12:	00          	NOP     
3b13:	00          	NOP     
3b14:	00          	NOP     
3b15:	63          	LD      H,E
3b16:	50          	LD      D,B
3b17:	00          	NOP     
3b18:	00          	NOP     
3b19:	00          	NOP     
3b1a:	00          	NOP     
3b1b:	00          	NOP     
3b1c:	00          	NOP     
3b1d:	63          	LD      H,E
3b1e:	50          	LD      D,B
3b1f:	00          	NOP     
3b20:	00          	NOP     
3b21:	00          	NOP     
3b22:	00          	NOP     
3b23:	00          	NOP     
3b24:	00          	NOP     
3b25:	EE 67       	XOR     67H
3b27:	D6 00       	SUB     00H
3b29:	00          	NOP     
3b2a:	00          	NOP     
3b2b:	00          	NOP     
3b2c:	00          	NOP     
3b2d:	00          	NOP     
3b2e:	42          	LD      B,D
3b2f:	D7          	RST     10H
3b30:	00          	NOP     
3b31:	00          	NOP     
3b32:	00          	NOP     
3b33:	00          	NOP     
3b34:	00          	NOP     
3b35:	00          	NOP     
3b36:	67          	LD      H,A
3b37:	D6 00       	SUB     00H
3b39:	00          	NOP     
3b3a:	00          	NOP     
3b3b:	00          	NOP     
3b3c:	00          	NOP     
3b3d:	00          	NOP     
3b3e:	42          	LD      B,D
3b3f:	D7          	RST     10H
3b40:	00          	NOP     
3b41:	00          	NOP     
3b42:	00          	NOP     
3b43:	00          	NOP     
3b44:	00          	NOP     
3b45:	00          	NOP     
3b46:	67          	LD      H,A
3b47:	D6 00       	SUB     00H
3b49:	00          	NOP     
3b4a:	00          	NOP     
3b4b:	00          	NOP     
3b4c:	00          	NOP     
3b4d:	00          	NOP     
3b4e:	42          	LD      B,D
3b4f:	D7          	RST     10H
3b50:	00          	NOP     
3b51:	00          	NOP     
3b52:	00          	NOP     
3b53:	00          	NOP     
3b54:	00          	NOP     
3b55:	00          	NOP     
3b56:	67          	LD      H,A
3b57:	D6 00       	SUB     00H
3b59:	00          	NOP     
3b5a:	00          	NOP     
3b5b:	00          	NOP     
3b5c:	00          	NOP     
3b5d:	00          	NOP     
3b5e:	EE 68       	XOR     68H
3b60:	41          	LD      B,C
3b61:	00          	NOP     
3b62:	00          	NOP     
3b63:	00          	NOP     
3b64:	00          	NOP     
3b65:	00          	NOP     
3b66:	00          	NOP     
3b67:	42          	LD      B,D
3b68:	D7          	RST     10H
3b69:	00          	NOP     
3b6a:	00          	NOP     
3b6b:	00          	NOP     
3b6c:	00          	NOP     
3b6d:	00          	NOP     
3b6e:	00          	NOP     
3b6f:	42          	LD      B,D
3b70:	D7          	RST     10H
3b71:	00          	NOP     
3b72:	00          	NOP     
3b73:	00          	NOP     
3b74:	00          	NOP     
3b75:	00          	NOP     
3b76:	00          	NOP     
3b77:	42          	LD      B,D
3b78:	D7          	RST     10H
3b79:	00          	NOP     
3b7a:	00          	NOP     
3b7b:	00          	NOP     
3b7c:	00          	NOP     
3b7d:	00          	NOP     
3b7e:	00          	NOP     
3b7f:	42          	LD      B,D
3b80:	D7          	RST     10H
3b81:	00          	NOP     
3b82:	00          	NOP     
3b83:	00          	NOP     
3b84:	00          	NOP     
3b85:	00          	NOP     
3b86:	00          	NOP     
3b87:	42          	LD      B,D
3b88:	D7          	RST     10H
3b89:	00          	NOP     
3b8a:	00          	NOP     
3b8b:	00          	NOP     
3b8c:	00          	NOP     
3b8d:	00          	NOP     
3b8e:	00          	NOP     
3b8f:	68          	LD      L,B
3b90:	41          	LD      B,C
3b91:	00          	NOP     
3b92:	00          	NOP     
3b93:	00          	NOP     
3b94:	00          	NOP     
3b95:	00          	NOP     
3b96:	00          	NOP     
3b97:	62          	LD      H,D
3b98:	5C          	LD      E,H
3b99:	00          	NOP     
3b9a:	00          	NOP     
3b9b:	00          	NOP     
3b9c:	00          	NOP     
3b9d:	00          	NOP     
3b9e:	00          	NOP     
3b9f:	EE 62       	XOR     62H
3ba1:	C7          	RST     00H
3ba2:	FF          	RST     38H
3ba3:	FE FE       	CP      0FEH
3ba5:	00          	NOP     
3ba6:	00          	NOP     
3ba7:	00          	NOP     
3ba8:	EE 62       	XOR     62H
3baa:	C7          	RST     00H
3bab:	00          	NOP     
3bac:	02          	LD      (BC),A
3bad:	02          	LD      (BC),A
3bae:	00          	NOP     
3baf:	FF          	RST     38H
3bb0:	FE EE       	CP      0EEH
3bb2:	67          	LD      H,A
3bb3:	3E 00       	LD      A,00H
3bb5:	00          	NOP     
3bb6:	00          	NOP     
3bb7:	00          	NOP     
3bb8:	00          	NOP     
3bb9:	00          	NOP     
3bba:	42          	LD      B,D
3bbb:	D7          	RST     10H
3bbc:	00          	NOP     
3bbd:	00          	NOP     
3bbe:	00          	NOP     
3bbf:	00          	NOP     
3bc0:	00          	NOP     
3bc1:	00          	NOP     
3bc2:	42          	LD      B,D
3bc3:	D7          	RST     10H
3bc4:	00          	NOP     
3bc5:	00          	NOP     
3bc6:	00          	NOP     
3bc7:	00          	NOP     
3bc8:	00          	NOP     
3bc9:	00          	NOP     
3bca:	67          	LD      H,A
3bcb:	3E 00       	LD      A,00H
3bcd:	00          	NOP     
3bce:	00          	NOP     
3bcf:	00          	NOP     
3bd0:	00          	NOP     
3bd1:	00          	NOP     
3bd2:	EE 6A       	XOR     6AH
3bd4:	38 00       	JR      C,0BD6H
3bd6:	00          	NOP     
3bd7:	00          	NOP     
3bd8:	00          	NOP     
3bd9:	00          	NOP     
3bda:	00          	NOP     
3bdb:	6A          	LD      L,D
3bdc:	BA          	CP      D
3bdd:	FE 68       	CP      68H
3bdf:	00          	NOP     
3be0:	FD 00       	NOP     
3be2:	00          	NOP     
3be3:	6B          	LD      L,E
3be4:	1B          	DEC     DE
3be5:	FE 68       	CP      68H
3be7:	00          	NOP     
3be8:	FD 00       	NOP     
3bea:	00          	NOP     
3beb:	6B          	LD      L,E
3bec:	81          	ADD     A,C
3bed:	FE 68       	CP      68H
3bef:	00          	NOP     
3bf0:	FD 00       	NOP     
3bf2:	00          	NOP     
3bf3:	6B          	LD      L,E
3bf4:	E7          	RST     20H
3bf5:	FE 68       	CP      68H
3bf7:	00          	NOP     
3bf8:	FD 00       	NOP     
3bfa:	00          	NOP     
3bfb:	6C          	LD      L,H
3bfc:	48          	LD      C,B
3bfd:	FE 68       	CP      68H
3bff:	00          	NOP     
3c00:	FD 00       	NOP     
3c02:	00          	NOP     
3c03:	DD 03       	INC     BC
3c05:	CC D5 6A    	CALL    Z,6AD5H
3c08:	38 00       	JR      C,0C0AH
3c0a:	00          	NOP     
3c0b:	00          	NOP     
3c0c:	00          	NOP     
3c0d:	00          	NOP     
3c0e:	00          	NOP     
3c0f:	EE 6A       	XOR     6AH
3c11:	38 00       	JR      C,0C13H
3c13:	00          	NOP     
3c14:	00          	NOP     
3c15:	00          	NOP     
3c16:	FF          	RST     38H
3c17:	78          	LD      A,B
3c18:	6A          	LD      L,D
3c19:	BA          	CP      D
3c1a:	01 98 00    	LD      BC,0098H
3c1d:	03          	INC     BC
3c1e:	FD E0       	RET     PO

3c20:	6B          	LD      L,E
3c21:	1B          	DEC     DE
3c22:	01 98 00    	LD      BC,0098H
3c25:	03          	INC     BC
3c26:	FD 58       	LD      E,B
3c28:	6B          	LD      L,E
3c29:	81          	ADD     A,C
3c2a:	01 98 00    	LD      BC,0098H
3c2d:	03          	INC     BC
3c2e:	FD 58       	LD      E,B
3c30:	6B          	LD      L,E
3c31:	E7          	RST     20H
3c32:	01 98 00    	LD      BC,0098H
3c35:	03          	INC     BC
3c36:	FD E0       	RET     PO

3c38:	6C          	LD      L,H
3c39:	48          	LD      C,B
3c3a:	01 98 00    	LD      BC,0098H
3c3d:	03          	INC     BC
3c3e:	FD 58       	LD      E,B
3c40:	DD 03       	INC     BC
3c42:	CC D5 6A    	CALL    Z,6AD5H
3c45:	38 00       	JR      C,0C47H
3c47:	00          	NOP     
3c48:	00          	NOP     
3c49:	00          	NOP     
3c4a:	FF          	RST     38H
3c4b:	78          	LD      A,B
3c4c:	EE 42       	XOR     42H
3c4e:	D7          	RST     10H
3c4f:	00          	NOP     
3c50:	00          	NOP     
3c51:	00          	NOP     
3c52:	00          	NOP     
3c53:	00          	NOP     
3c54:	00          	NOP     
3c55:	69          	LD      L,C
3c56:	26 00       	LD      H,00H
3c58:	00          	NOP     
3c59:	00          	NOP     
3c5a:	00          	NOP     
3c5b:	00          	NOP     
3c5c:	00          	NOP     
3c5d:	69          	LD      L,C
3c5e:	26 00       	LD      H,00H
3c60:	00          	NOP     
3c61:	00          	NOP     
3c62:	00          	NOP     
3c63:	00          	NOP     
3c64:	00          	NOP     
3c65:	EE 6D       	XOR     6DH
3c67:	B1          	OR      C
3c68:	00          	NOP     
3c69:	00          	NOP     
3c6a:	00          	NOP     
3c6b:	00          	NOP     
3c6c:	00          	NOP     
3c6d:	00          	NOP     
3c6e:	42          	LD      B,D
3c6f:	D7          	RST     10H
3c70:	00          	NOP     
3c71:	00          	NOP     
3c72:	00          	NOP     
3c73:	00          	NOP     
3c74:	00          	NOP     
3c75:	00          	NOP     
3c76:	6D          	LD      L,L
3c77:	B1          	OR      C
3c78:	00          	NOP     
3c79:	00          	NOP     
3c7a:	00          	NOP     
3c7b:	00          	NOP     
3c7c:	00          	NOP     
3c7d:	00          	NOP     
3c7e:	42          	LD      B,D
3c7f:	D7          	RST     10H
3c80:	00          	NOP     
3c81:	00          	NOP     
3c82:	00          	NOP     
3c83:	00          	NOP     
3c84:	00          	NOP     
3c85:	00          	NOP     
3c86:	6D          	LD      L,L
3c87:	B1          	OR      C
3c88:	00          	NOP     
3c89:	00          	NOP     
3c8a:	00          	NOP     
3c8b:	00          	NOP     
3c8c:	00          	NOP     
3c8d:	00          	NOP     
3c8e:	42          	LD      B,D
3c8f:	D7          	RST     10H
3c90:	00          	NOP     
3c91:	00          	NOP     
3c92:	00          	NOP     
3c93:	00          	NOP     
3c94:	00          	NOP     
3c95:	00          	NOP     
3c96:	6D          	LD      L,L
3c97:	B1          	OR      C
3c98:	00          	NOP     
3c99:	00          	NOP     
3c9a:	00          	NOP     
3c9b:	00          	NOP     
3c9c:	00          	NOP     
3c9d:	00          	NOP     
3c9e:	EE 6D       	XOR     6DH
3ca0:	37          	SCF     
3ca1:	00          	NOP     
3ca2:	00          	NOP     
3ca3:	00          	NOP     
3ca4:	00          	NOP     
3ca5:	00          	NOP     
3ca6:	00          	NOP     
3ca7:	42          	LD      B,D
3ca8:	D7          	RST     10H
3ca9:	00          	NOP     
3caa:	00          	NOP     
3cab:	00          	NOP     
3cac:	00          	NOP     
3cad:	00          	NOP     
3cae:	00          	NOP     
3caf:	42          	LD      B,D
3cb0:	D7          	RST     10H
3cb1:	00          	NOP     
3cb2:	00          	NOP     
3cb3:	00          	NOP     
3cb4:	00          	NOP     
3cb5:	00          	NOP     
3cb6:	00          	NOP     
3cb7:	42          	LD      B,D
3cb8:	D7          	RST     10H
3cb9:	00          	NOP     
3cba:	00          	NOP     
3cbb:	00          	NOP     
3cbc:	00          	NOP     
3cbd:	00          	NOP     
3cbe:	00          	NOP     
3cbf:	42          	LD      B,D
3cc0:	D7          	RST     10H
3cc1:	00          	NOP     
3cc2:	00          	NOP     
3cc3:	00          	NOP     
3cc4:	00          	NOP     
3cc5:	00          	NOP     
3cc6:	00          	NOP     
3cc7:	42          	LD      B,D
3cc8:	D7          	RST     10H
3cc9:	00          	NOP     
3cca:	00          	NOP     
3ccb:	00          	NOP     
3ccc:	00          	NOP     
3ccd:	00          	NOP     
3cce:	00          	NOP     
3ccf:	6D          	LD      L,L
3cd0:	37          	SCF     
3cd1:	00          	NOP     
3cd2:	00          	NOP     
3cd3:	00          	NOP     
3cd4:	00          	NOP     
3cd5:	00          	NOP     
3cd6:	00          	NOP     
3cd7:	68          	LD      L,B
3cd8:	AC          	XOR     H
3cd9:	00          	NOP     
3cda:	00          	NOP     
3cdb:	00          	NOP     
3cdc:	00          	NOP     
3cdd:	00          	NOP     
3cde:	00          	NOP     
3cdf:	EE 69       	XOR     69H
3ce1:	A0          	AND     B
3ce2:	FF          	RST     38H
3ce3:	FE FE       	CP      0FEH
3ce5:	00          	NOP     
3ce6:	00          	NOP     
3ce7:	00          	NOP     
3ce8:	EE 69       	XOR     69H
3cea:	A0          	AND     B
3ceb:	00          	NOP     
3cec:	02          	LD      (BC),A
3ced:	02          	LD      (BC),A
3cee:	00          	NOP     
3cef:	FF          	RST     38H
3cf0:	FE EE       	CP      0EEH
3cf2:	6C          	LD      L,H
3cf3:	AE          	XOR     (HL)
3cf4:	00          	NOP     
3cf5:	00          	NOP     
3cf6:	00          	NOP     
3cf7:	00          	NOP     
3cf8:	00          	NOP     
3cf9:	00          	NOP     
3cfa:	42          	LD      B,D
3cfb:	D7          	RST     10H
3cfc:	00          	NOP     
3cfd:	00          	NOP     
3cfe:	00          	NOP     
3cff:	00          	NOP     
3d00:	00          	NOP     
3d01:	00          	NOP     
3d02:	42          	LD      B,D
3d03:	D7          	RST     10H
3d04:	00          	NOP     
3d05:	00          	NOP     
3d06:	00          	NOP     
3d07:	00          	NOP     
3d08:	00          	NOP     
3d09:	00          	NOP     
3d0a:	6C          	LD      L,H
3d0b:	AE          	XOR     (HL)
3d0c:	00          	NOP     
3d0d:	00          	NOP     
3d0e:	00          	NOP     
3d0f:	00          	NOP     
3d10:	00          	NOP     
3d11:	00          	NOP     
3d12:	EE 43       	XOR     43H
3d14:	F0          	RET     P

3d15:	00          	NOP     
3d16:	00          	NOP     
3d17:	00          	NOP     
3d18:	00          	NOP     
3d19:	00          	NOP     
3d1a:	88          	ADC     A,B
3d1b:	44          	LD      B,H
3d1c:	5A          	LD      E,D
3d1d:	FE 68       	CP      68H
3d1f:	00          	NOP     
3d20:	FD 00       	NOP     
3d22:	00          	NOP     
3d23:	44          	LD      B,H
3d24:	E4 FE 68    	CALL    PO,68FEH
3d27:	00          	NOP     
3d28:	FD 00       	NOP     
3d2a:	00          	NOP     
3d2b:	45          	LD      B,L
3d2c:	9A          	SBC     A,D
3d2d:	FE 68       	CP      68H
3d2f:	00          	NOP     
3d30:	FD 00       	NOP     
3d32:	00          	NOP     
3d33:	46          	LD      B,(HL)
3d34:	47          	LD      B,A
3d35:	FE 68       	CP      68H
3d37:	00          	NOP     
3d38:	FD FE F0    	CP      0F0H
3d3b:	DD 0B       	DEC     BC
3d3d:	49          	LD      C,C
3d3e:	BA          	CP      D
3d3f:	FE 68       	CP      68H
3d41:	00          	NOP     
3d42:	FD 00       	NOP     
3d44:	88          	ADC     A,B
3d45:	CC D5 46    	CALL    Z,46D5H
3d48:	F1          	POP     AF
3d49:	FE 68       	CP      68H
3d4b:	00          	NOP     
3d4c:	FD 00       	NOP     
3d4e:	88          	ADC     A,B
3d4f:	EE 43       	XOR     43H
3d51:	F0          	RET     P

3d52:	00          	NOP     
3d53:	00          	NOP     
3d54:	00          	NOP     
3d55:	00          	NOP     
3d56:	00          	NOP     
3d57:	88          	ADC     A,B
3d58:	44          	LD      B,H
3d59:	5A          	LD      E,D
3d5a:	01 98 00    	LD      BC,0098H
3d5d:	03          	INC     BC
3d5e:	FE F0       	CP      0F0H
3d60:	44          	LD      B,H
3d61:	E4 01 98    	CALL    PO,9801H
3d64:	00          	NOP     
3d65:	03          	INC     BC
3d66:	FD 58       	LD      E,B
3d68:	45          	LD      B,L
3d69:	9A          	SBC     A,D
3d6a:	01 98 00    	LD      BC,0098H
3d6d:	03          	INC     BC
3d6e:	FD E0       	RET     PO

3d70:	46          	LD      B,(HL)
3d71:	47          	LD      B,A
3d72:	01 98 00    	LD      BC,0098H
3d75:	03          	INC     BC
3d76:	FD E0       	RET     PO

3d78:	DD 0B       	DEC     BC
3d7a:	49          	LD      C,C
3d7b:	BA          	CP      D
3d7c:	01 98 00    	LD      BC,0098H
3d7f:	03          	INC     BC
3d80:	FD 58       	LD      E,B
3d82:	CC D5 46    	CALL    Z,46D5H
3d85:	F1          	POP     AF
3d86:	01 98 00    	LD      BC,0098H
3d89:	03          	INC     BC
3d8a:	FD 58       	LD      E,B
3d8c:	EE 43       	XOR     43H
3d8e:	86          	ADD     A,(HL)
3d8f:	FF          	RST     38H
3d90:	FE FE       	CP      0FEH
3d92:	00          	NOP     
3d93:	00          	NOP     
3d94:	88          	ADC     A,B
3d95:	EE 43       	XOR     43H
3d97:	86          	ADD     A,(HL)
3d98:	00          	NOP     
3d99:	02          	LD      (BC),A
3d9a:	02          	LD      (BC),A
3d9b:	00          	NOP     
3d9c:	00          	NOP     
3d9d:	86          	ADD     A,(HL)
3d9e:	EE 43       	XOR     43H
3da0:	2A 00 00    	LD      HL,(0000H)
3da3:	00          	NOP     
3da4:	00          	NOP     
3da5:	00          	NOP     
3da6:	00          	NOP     
3da7:	43          	LD      B,E
3da8:	2A 00 00    	LD      HL,(0000H)
3dab:	00          	NOP     
3dac:	00          	NOP     
3dad:	00          	NOP     
3dae:	00          	NOP     
3daf:	EE 4A       	XOR     4AH
3db1:	54          	LD      D,H
3db2:	00          	NOP     
3db3:	00          	NOP     
3db4:	00          	NOP     
3db5:	00          	NOP     
3db6:	00          	NOP     
3db7:	00          	NOP     
3db8:	DD 13       	INC     DE
3dba:	4A          	LD      C,D
3dbb:	DD 00       	NOP     
3dbd:	00          	NOP     
3dbe:	00          	NOP     
3dbf:	00          	NOP     
3dc0:	00          	NOP     
3dc1:	00          	NOP     
3dc2:	4A          	LD      C,D
3dc3:	DD 00       	NOP     
3dc5:	00          	NOP     
3dc6:	00          	NOP     
3dc7:	00          	NOP     
3dc8:	00          	NOP     
3dc9:	00          	NOP     
3dca:	CC ED 4A    	CALL    Z,4AEDH
3dcd:	54          	LD      D,H
3dce:	00          	NOP     
3dcf:	00          	NOP     
3dd0:	00          	NOP     
3dd1:	00          	NOP     
3dd2:	00          	NOP     
3dd3:	00          	NOP     
3dd4:	EE 43       	XOR     43H
3dd6:	F0          	RET     P

3dd7:	00          	NOP     
3dd8:	00          	NOP     
3dd9:	00          	NOP     
3dda:	00          	NOP     
3ddb:	00          	NOP     
3ddc:	88          	ADC     A,B
3ddd:	47          	LD      B,A
3dde:	D9          	EXX     
3ddf:	00          	NOP     
3de0:	03          	INC     BC
3de1:	03          	INC     BC
3de2:	00          	NOP     
3de3:	FF          	RST     38H
3de4:	FD 4B       	LD      C,E
3de6:	66          	LD      H,(HL)
3de7:	00          	NOP     
3de8:	03          	INC     BC
3de9:	03          	INC     BC
3dea:	00          	NOP     
3deb:	FF          	RST     38H
3dec:	FD 48       	LD      C,B
3dee:	71          	LD      (HL),C
3def:	00          	NOP     
3df0:	03          	INC     BC
3df1:	03          	INC     BC
3df2:	00          	NOP     
3df3:	FF          	RST     38H
3df4:	FD DD 13    	INC     DE
3df7:	4B          	LD      C,E
3df8:	FE 00       	CP      00H
3dfa:	00          	NOP     
3dfb:	00          	NOP     
3dfc:	00          	NOP     
3dfd:	FF          	RST     38H
3dfe:	FF          	RST     38H
3dff:	4B          	LD      C,E
3e00:	FE 00       	CP      00H
3e02:	00          	NOP     
3e03:	00          	NOP     
3e04:	00          	NOP     
3e05:	FF          	RST     38H
3e06:	FF          	RST     38H
3e07:	CC ED 48    	CALL    Z,48EDH
3e0a:	71          	LD      (HL),C
3e0b:	FF          	RST     38H
3e0c:	FD FD 00    	NOP     
3e0f:	00          	NOP     
3e10:	00          	NOP     
3e11:	4B          	LD      C,E
3e12:	66          	LD      H,(HL)
3e13:	FF          	RST     38H
3e14:	FD FD 00    	NOP     
3e17:	00          	NOP     
3e18:	00          	NOP     
3e19:	48          	LD      C,B
3e1a:	FA FF FD    	JP      M,0FDFFH
3e1d:	FD 00       	NOP     
3e1f:	FE F0       	CP      0F0H
3e21:	47          	LD      B,A
3e22:	65          	LD      H,L
3e23:	00          	NOP     
3e24:	00          	NOP     
3e25:	00          	NOP     
3e26:	00          	NOP     
3e27:	FE F0       	CP      0F0H
3e29:	EE F5       	XOR     0F5H
3e2b:	C5          	PUSH    BC
3e2c:	D5          	PUSH    DE
3e2d:	E5          	PUSH    HL
3e2e:	DD E5       	PUSH    IX
3e30:	FD E5       	PUSH    IY
3e32:	3A 66 7D    	LD      A,(7D66H)
3e35:	FE 01       	CP      01H
3e37:	28 27       	JR      Z,0E60H
3e39:	DD 21 88 7D  	LD      IX,7D88H
3e3d:	21 8B 7D    	LD      HL,7D8BH
3e40:	11 43 7C    	LD      DE,7C43H
3e43:	06 03       	LD      B,03H
3e45:	7E          	LD      A,(HL)
3e46:	12          	LD      (DE),A
3e47:	23          	INC     HL
3e48:	1B          	DEC     DE
3e49:	10 FA       	DJNZ    0E45H
3e4b:	CD 3E 41    	CALL    413EH
3e4e:	3A 46 7C    	LD      A,(7C46H)
3e51:	FE 00       	CP      00H
3e53:	20 08       	JR      NZ,0E5DH
3e55:	CD 82 3E    	CALL    3E82H
3e58:	CD 89 3E    	CALL    3E89H
3e5b:	18 06       	JR      0E63H
3e5d:	CD 89 3E    	CALL    3E89H
3e60:	CD 82 3E    	CALL    3E82H
3e63:	3A 4E 7C    	LD      A,(7C4EH)
3e66:	FE 01       	CP      01H
3e68:	20 0F       	JR      NZ,0E79H
3e6a:	97          	SUB     A
3e6b:	32 4E 7C    	LD      (7C4EH),A
3e6e:	CD 45 12    	CALL    1245H
3e71:	CD 16 42    	CALL    4216H
3e74:	06 78       	LD      B,78H
3e76:	CD 9B 11    	CALL    119BH
3e79:	FD E1       	POP     IY
3e7b:	DD E1       	POP     IX
3e7d:	E1          	POP     HL
3e7e:	D1          	POP     DE
3e7f:	C1          	POP     BC
3e80:	F1          	POP     AF
3e81:	C9          	RET     

3e82:	21 88 7D    	LD      HL,7D88H
3e85:	3E 01       	LD      A,01H
3e87:	18 05       	JR      0E8EH
3e89:	21 8B 7D    	LD      HL,7D8BH
3e8c:	3E 02       	LD      A,02H
3e8e:	CD 98 3E    	CALL    3E98H
3e91:	32 44 7C    	LD      (7C44H),A
3e94:	CD A6 3E    	CALL    3EA6H
3e97:	C9          	RET     

3e98:	F5          	PUSH    AF
3e99:	11 3D 7C    	LD      DE,7C3DH
3e9c:	06 03       	LD      B,03H
3e9e:	7E          	LD      A,(HL)
3e9f:	12          	LD      (DE),A
3ea0:	23          	INC     HL
3ea1:	1B          	DEC     DE
3ea2:	10 FA       	DJNZ    0E9EH
3ea4:	F1          	POP     AF
3ea5:	C9          	RET     

3ea6:	F5          	PUSH    AF
3ea7:	C5          	PUSH    BC
3ea8:	D5          	PUSH    DE
3ea9:	E5          	PUSH    HL
3eaa:	DD E5       	PUSH    IX
3eac:	3A 4B 7C    	LD      A,(7C4BH)
3eaf:	FE 0A       	CP      0AH
3eb1:	28 04       	JR      Z,0EB7H
3eb3:	3C          	INC     A
3eb4:	32 4B 7C    	LD      (7C4BH),A
3eb7:	DD 21 2F 7C  	LD      IX,7C2FH
3ebb:	21 3B 7C    	LD      HL,7C3BH
3ebe:	11 41 7C    	LD      DE,7C41H
3ec1:	06 03       	LD      B,03H
3ec3:	7E          	LD      A,(HL)
3ec4:	12          	LD      (DE),A
3ec5:	23          	INC     HL
3ec6:	13          	INC     DE
3ec7:	10 FA       	DJNZ    0EC3H
3ec9:	CD 3E 41    	CALL    413EH
3ecc:	3A 46 7C    	LD      A,(7C46H)
3ecf:	FE 00       	CP      00H
3ed1:	28 1C       	JR      Z,0EEFH
3ed3:	3E 01       	LD      A,01H
3ed5:	32 4E 7C    	LD      (7C4EH),A
3ed8:	11 35 7C    	LD      DE,7C35H
3edb:	06 03       	LD      B,03H
3edd:	2B          	DEC     HL
3ede:	7E          	LD      A,(HL)
3edf:	12          	LD      (DE),A
3ee0:	13          	INC     DE
3ee1:	10 FA       	DJNZ    0EDDH
3ee3:	97          	SUB     A
3ee4:	12          	LD      (DE),A
3ee5:	13          	INC     DE
3ee6:	12          	LD      (DE),A
3ee7:	13          	INC     DE
3ee8:	12          	LD      (DE),A
3ee9:	CD F6 3E    	CALL    3EF6H
3eec:	CD E6 40    	CALL    40E6H
3eef:	DD E1       	POP     IX
3ef1:	E1          	POP     HL
3ef2:	D1          	POP     DE
3ef3:	C1          	POP     BC
3ef4:	F1          	POP     AF
3ef5:	C9          	RET     

3ef6:	F5          	PUSH    AF
3ef7:	C5          	PUSH    BC
3ef8:	D5          	PUSH    DE
3ef9:	E5          	PUSH    HL
3efa:	DD E5       	PUSH    IX
3efc:	FD E5       	PUSH    IY
3efe:	97          	SUB     A
3eff:	CD 45 12    	CALL    1245H
3f02:	CD D2 1A    	CALL    1AD2H
3f05:	32 4C 7C    	LD      (7C4CH),A
3f08:	3E 0B       	LD      A,0BH
3f0a:	CD 53 0B    	CALL    0B53H
3f0d:	FD 21 E6 41  	LD      IY,41E6H
3f11:	DD 21 33 9F  	LD      IX,9F33H
3f15:	CD 98 12    	CALL    1298H
3f18:	FD 21 88 41  	LD      IY,4188H
3f1c:	DD 21 08 95  	LD      IX,9508H
3f20:	CD 93 12    	CALL    1293H
3f23:	FD 21 F5 41  	LD      IY,41F5H
3f27:	DD 21 2A B0  	LD      IX,0B02AH
3f2b:	CD 93 12    	CALL    1293H
3f2e:	FD 21 00 42  	LD      IY,4200H
3f32:	3A 44 7C    	LD      A,(7C44H)
3f35:	FE 01       	CP      01H
3f37:	20 04       	JR      NZ,0F3DH
3f39:	FD 21 FE 41  	LD      IY,41FEH
3f3d:	DD 21 BA CA  	LD      IX,0CABAH
3f41:	CD 93 12    	CALL    1293H
3f44:	FD 21 02 42  	LD      IY,4202H
3f48:	DD 21 53 AE  	LD      IX,0AE53H
3f4c:	CD 93 12    	CALL    1293H
3f4f:	FD 21 0E 42  	LD      IY,420EH
3f53:	DD 21 A4 B1  	LD      IX,0B1A4H
3f57:	CD 98 12    	CALL    1298H
3f5a:	3E 03       	LD      A,03H
3f5c:	32 F2 7B    	LD      (7BF2H),A
3f5f:	3E 30       	LD      A,30H
3f61:	32 47 7C    	LD      (7C47H),A
3f64:	CD CC 40    	CALL    40CCH
3f67:	3E 14       	LD      A,14H
3f69:	32 45 7C    	LD      (7C45H),A
3f6c:	11 49 7C    	LD      DE,7C49H
3f6f:	3E 01       	LD      A,01H
3f71:	32 48 7C    	LD      (7C48H),A
3f74:	12          	LD      (DE),A
3f75:	CD 8D 40    	CALL    408DH
3f78:	06 3C       	LD      B,3CH
3f7a:	32 5E 7D    	LD      (7D5EH),A
3f7d:	CD 62 40    	CALL    4062H
3f80:	3A 4C 7C    	LD      A,(7C4CH)
3f83:	FE 01       	CP      01H
3f85:	CA 59 40    	JP      Z,4059H
3f88:	DB 02       	IN      A,(02H)
3f8a:	CB 57       	BIT     2,A
3f8c:	20 30       	JR      NZ,0FBEH
3f8e:	3A 48 7C    	LD      A,(7C48H)
3f91:	21 37 7C    	LD      HL,7C37H
3f94:	85          	ADD     A,L
3f95:	6F          	LD      L,A
3f96:	7C          	LD      A,H
3f97:	CE 00       	ADC     A,00H
3f99:	67          	LD      H,A
3f9a:	1A          	LD      A,(DE)
3f9b:	77          	LD      (HL),A
3f9c:	3A 48 7C    	LD      A,(7C48H)
3f9f:	FE 03       	CP      03H
3fa1:	CA 59 40    	JP      Z,4059H
3fa4:	3C          	INC     A
3fa5:	32 48 7C    	LD      (7C48H),A
3fa8:	DB 02       	IN      A,(02H)
3faa:	CB 57       	BIT     2,A
3fac:	20 0D       	JR      NZ,0FBBH
3fae:	CD 62 40    	CALL    4062H
3fb1:	3A 4C 7C    	LD      A,(7C4CH)
3fb4:	FE 01       	CP      01H
3fb6:	CA 59 40    	JP      Z,4059H
3fb9:	18 ED       	JR      0FA8H
3fbb:	CD 8D 40    	CALL    408DH
3fbe:	DB 02       	IN      A,(02H)
3fc0:	CB 6F       	BIT     5,A
3fc2:	20 0B       	JR      NZ,0FCFH
3fc4:	1A          	LD      A,(DE)
3fc5:	3D          	DEC     A
3fc6:	FE FF       	CP      0FFH
3fc8:	20 02       	JR      NZ,0FCCH
3fca:	3E 37       	LD      A,37H
3fcc:	12          	LD      (DE),A
3fcd:	18 0D       	JR      0FDCH
3fcf:	DB 02       	IN      A,(02H)
3fd1:	CB 67       	BIT     4,A
3fd3:	20 A8       	JR      NZ,0F7DH
3fd5:	1A          	LD      A,(DE)
3fd6:	3C          	INC     A
3fd7:	FE 38       	CP      38H
3fd9:	20 01       	JR      NZ,0FDCH
3fdb:	97          	SUB     A
3fdc:	12          	LD      (DE),A
3fdd:	CD 8D 40    	CALL    408DH
3fe0:	3A 45 7C    	LD      A,(7C45H)
3fe3:	FE 06       	CP      06H
3fe5:	38 05       	JR      C,0FECH
3fe7:	3D          	DEC     A
3fe8:	3D          	DEC     A
3fe9:	32 45 7C    	LD      (7C45H),A
3fec:	32 4A 7C    	LD      (7C4AH),A
3fef:	DB 02       	IN      A,(02H)
3ff1:	D3 00       	OUT     (00H),A
3ff3:	CB 6F       	BIT     5,A
3ff5:	28 0C       	JR      Z,1003H
3ff7:	CB 67       	BIT     4,A
3ff9:	28 08       	JR      Z,1003H
3ffb:	3E 14       	LD      A,14H
3ffd:	32 45 7C    	LD      (7C45H),A